
u_adc.elf:     file format elf32-littlearm

Sections:
Idx Name          Size      VMA       LMA       File off  Algn
  0 .isr_vector   000000c0  08000000  08000000  00001000  2**0
                  CONTENTS, ALLOC, LOAD, READONLY, DATA
  1 .text         000041d4  080000c0  080000c0  000010c0  2**2
                  CONTENTS, ALLOC, LOAD, READONLY, CODE
  2 .rodata       000001e4  08004294  08004294  00005294  2**2
                  CONTENTS, ALLOC, LOAD, READONLY, DATA
  3 .ARM.extab    00000000  08004478  08004478  000061bc  2**0
                  CONTENTS
  4 .ARM          00000000  08004478  08004478  000061bc  2**0
                  CONTENTS
  5 .preinit_array 00000000  08004478  08004478  000061bc  2**0
                  CONTENTS, ALLOC, LOAD, DATA
  6 .init_array   00000004  08004478  08004478  00005478  2**2
                  CONTENTS, ALLOC, LOAD, READONLY, DATA
  7 .fini_array   00000004  0800447c  0800447c  0000547c  2**2
                  CONTENTS, ALLOC, LOAD, READONLY, DATA
  8 .data         000001bc  20000000  08004480  00006000  2**2
                  CONTENTS, ALLOC, LOAD, DATA
  9 .bss          00000de8  200001bc  0800463c  000061bc  2**2
                  ALLOC
 10 ._user_heap_stack 00000604  20000fa4  0800463c  00006fa4  2**0
                  ALLOC
 11 .ARM.attributes 00000028  00000000  00000000  000061bc  2**0
                  CONTENTS, READONLY
 12 .comment      00000043  00000000  00000000  000061e4  2**0
                  CONTENTS, READONLY
 13 .debug_frame  0000006c  00000000  00000000  00006228  2**2
                  CONTENTS, READONLY, DEBUGGING, OCTETS

Disassembly of section .text:

080000c0 <__do_global_dtors_aux>:
 80000c0:	b510      	push	{r4, lr}
 80000c2:	4c06      	ldr	r4, [pc, #24]	@ (80000dc <__do_global_dtors_aux+0x1c>)
 80000c4:	7823      	ldrb	r3, [r4, #0]
 80000c6:	2b00      	cmp	r3, #0
 80000c8:	d107      	bne.n	80000da <__do_global_dtors_aux+0x1a>
 80000ca:	4b05      	ldr	r3, [pc, #20]	@ (80000e0 <__do_global_dtors_aux+0x20>)
 80000cc:	2b00      	cmp	r3, #0
 80000ce:	d002      	beq.n	80000d6 <__do_global_dtors_aux+0x16>
 80000d0:	4804      	ldr	r0, [pc, #16]	@ (80000e4 <__do_global_dtors_aux+0x24>)
 80000d2:	e000      	b.n	80000d6 <__do_global_dtors_aux+0x16>
 80000d4:	bf00      	nop
 80000d6:	2301      	movs	r3, #1
 80000d8:	7023      	strb	r3, [r4, #0]
 80000da:	bd10      	pop	{r4, pc}
 80000dc:	200001bc 	.word	0x200001bc
 80000e0:	00000000 	.word	0x00000000
 80000e4:	0800427c 	.word	0x0800427c

080000e8 <frame_dummy>:
 80000e8:	4b04      	ldr	r3, [pc, #16]	@ (80000fc <frame_dummy+0x14>)
 80000ea:	b510      	push	{r4, lr}
 80000ec:	2b00      	cmp	r3, #0
 80000ee:	d003      	beq.n	80000f8 <frame_dummy+0x10>
 80000f0:	4903      	ldr	r1, [pc, #12]	@ (8000100 <frame_dummy+0x18>)
 80000f2:	4804      	ldr	r0, [pc, #16]	@ (8000104 <frame_dummy+0x1c>)
 80000f4:	e000      	b.n	80000f8 <frame_dummy+0x10>
 80000f6:	bf00      	nop
 80000f8:	bd10      	pop	{r4, pc}
 80000fa:	46c0      	nop			@ (mov r8, r8)
 80000fc:	00000000 	.word	0x00000000
 8000100:	200001c0 	.word	0x200001c0
 8000104:	0800427c 	.word	0x0800427c

08000108 <strlen>:
 8000108:	2300      	movs	r3, #0
 800010a:	5cc2      	ldrb	r2, [r0, r3]
 800010c:	3301      	adds	r3, #1
 800010e:	2a00      	cmp	r2, #0
 8000110:	d1fb      	bne.n	800010a <strlen+0x2>
 8000112:	1e58      	subs	r0, r3, #1
 8000114:	4770      	bx	lr
	...

08000118 <__gnu_thumb1_case_uqi>:
 8000118:	b402      	push	{r1}
 800011a:	4671      	mov	r1, lr
 800011c:	0849      	lsrs	r1, r1, #1
 800011e:	0049      	lsls	r1, r1, #1
 8000120:	5c09      	ldrb	r1, [r1, r0]
 8000122:	0049      	lsls	r1, r1, #1
 8000124:	448e      	add	lr, r1
 8000126:	bc02      	pop	{r1}
 8000128:	4770      	bx	lr
 800012a:	46c0      	nop			@ (mov r8, r8)

0800012c <__gnu_thumb1_case_uhi>:
 800012c:	b403      	push	{r0, r1}
 800012e:	4671      	mov	r1, lr
 8000130:	0849      	lsrs	r1, r1, #1
 8000132:	0040      	lsls	r0, r0, #1
 8000134:	0049      	lsls	r1, r1, #1
 8000136:	5a09      	ldrh	r1, [r1, r0]
 8000138:	0049      	lsls	r1, r1, #1
 800013a:	448e      	add	lr, r1
 800013c:	bc03      	pop	{r0, r1}
 800013e:	4770      	bx	lr

08000140 <__udivsi3>:
 8000140:	2200      	movs	r2, #0
 8000142:	0843      	lsrs	r3, r0, #1
 8000144:	428b      	cmp	r3, r1
 8000146:	d374      	bcc.n	8000232 <__udivsi3+0xf2>
 8000148:	0903      	lsrs	r3, r0, #4
 800014a:	428b      	cmp	r3, r1
 800014c:	d35f      	bcc.n	800020e <__udivsi3+0xce>
 800014e:	0a03      	lsrs	r3, r0, #8
 8000150:	428b      	cmp	r3, r1
 8000152:	d344      	bcc.n	80001de <__udivsi3+0x9e>
 8000154:	0b03      	lsrs	r3, r0, #12
 8000156:	428b      	cmp	r3, r1
 8000158:	d328      	bcc.n	80001ac <__udivsi3+0x6c>
 800015a:	0c03      	lsrs	r3, r0, #16
 800015c:	428b      	cmp	r3, r1
 800015e:	d30d      	bcc.n	800017c <__udivsi3+0x3c>
 8000160:	22ff      	movs	r2, #255	@ 0xff
 8000162:	0209      	lsls	r1, r1, #8
 8000164:	ba12      	rev	r2, r2
 8000166:	0c03      	lsrs	r3, r0, #16
 8000168:	428b      	cmp	r3, r1
 800016a:	d302      	bcc.n	8000172 <__udivsi3+0x32>
 800016c:	1212      	asrs	r2, r2, #8
 800016e:	0209      	lsls	r1, r1, #8
 8000170:	d065      	beq.n	800023e <__udivsi3+0xfe>
 8000172:	0b03      	lsrs	r3, r0, #12
 8000174:	428b      	cmp	r3, r1
 8000176:	d319      	bcc.n	80001ac <__udivsi3+0x6c>
 8000178:	e000      	b.n	800017c <__udivsi3+0x3c>
 800017a:	0a09      	lsrs	r1, r1, #8
 800017c:	0bc3      	lsrs	r3, r0, #15
 800017e:	428b      	cmp	r3, r1
 8000180:	d301      	bcc.n	8000186 <__udivsi3+0x46>
 8000182:	03cb      	lsls	r3, r1, #15
 8000184:	1ac0      	subs	r0, r0, r3
 8000186:	4152      	adcs	r2, r2
 8000188:	0b83      	lsrs	r3, r0, #14
 800018a:	428b      	cmp	r3, r1
 800018c:	d301      	bcc.n	8000192 <__udivsi3+0x52>
 800018e:	038b      	lsls	r3, r1, #14
 8000190:	1ac0      	subs	r0, r0, r3
 8000192:	4152      	adcs	r2, r2
 8000194:	0b43      	lsrs	r3, r0, #13
 8000196:	428b      	cmp	r3, r1
 8000198:	d301      	bcc.n	800019e <__udivsi3+0x5e>
 800019a:	034b      	lsls	r3, r1, #13
 800019c:	1ac0      	subs	r0, r0, r3
 800019e:	4152      	adcs	r2, r2
 80001a0:	0b03      	lsrs	r3, r0, #12
 80001a2:	428b      	cmp	r3, r1
 80001a4:	d301      	bcc.n	80001aa <__udivsi3+0x6a>
 80001a6:	030b      	lsls	r3, r1, #12
 80001a8:	1ac0      	subs	r0, r0, r3
 80001aa:	4152      	adcs	r2, r2
 80001ac:	0ac3      	lsrs	r3, r0, #11
 80001ae:	428b      	cmp	r3, r1
 80001b0:	d301      	bcc.n	80001b6 <__udivsi3+0x76>
 80001b2:	02cb      	lsls	r3, r1, #11
 80001b4:	1ac0      	subs	r0, r0, r3
 80001b6:	4152      	adcs	r2, r2
 80001b8:	0a83      	lsrs	r3, r0, #10
 80001ba:	428b      	cmp	r3, r1
 80001bc:	d301      	bcc.n	80001c2 <__udivsi3+0x82>
 80001be:	028b      	lsls	r3, r1, #10
 80001c0:	1ac0      	subs	r0, r0, r3
 80001c2:	4152      	adcs	r2, r2
 80001c4:	0a43      	lsrs	r3, r0, #9
 80001c6:	428b      	cmp	r3, r1
 80001c8:	d301      	bcc.n	80001ce <__udivsi3+0x8e>
 80001ca:	024b      	lsls	r3, r1, #9
 80001cc:	1ac0      	subs	r0, r0, r3
 80001ce:	4152      	adcs	r2, r2
 80001d0:	0a03      	lsrs	r3, r0, #8
 80001d2:	428b      	cmp	r3, r1
 80001d4:	d301      	bcc.n	80001da <__udivsi3+0x9a>
 80001d6:	020b      	lsls	r3, r1, #8
 80001d8:	1ac0      	subs	r0, r0, r3
 80001da:	4152      	adcs	r2, r2
 80001dc:	d2cd      	bcs.n	800017a <__udivsi3+0x3a>
 80001de:	09c3      	lsrs	r3, r0, #7
 80001e0:	428b      	cmp	r3, r1
 80001e2:	d301      	bcc.n	80001e8 <__udivsi3+0xa8>
 80001e4:	01cb      	lsls	r3, r1, #7
 80001e6:	1ac0      	subs	r0, r0, r3
 80001e8:	4152      	adcs	r2, r2
 80001ea:	0983      	lsrs	r3, r0, #6
 80001ec:	428b      	cmp	r3, r1
 80001ee:	d301      	bcc.n	80001f4 <__udivsi3+0xb4>
 80001f0:	018b      	lsls	r3, r1, #6
 80001f2:	1ac0      	subs	r0, r0, r3
 80001f4:	4152      	adcs	r2, r2
 80001f6:	0943      	lsrs	r3, r0, #5
 80001f8:	428b      	cmp	r3, r1
 80001fa:	d301      	bcc.n	8000200 <__udivsi3+0xc0>
 80001fc:	014b      	lsls	r3, r1, #5
 80001fe:	1ac0      	subs	r0, r0, r3
 8000200:	4152      	adcs	r2, r2
 8000202:	0903      	lsrs	r3, r0, #4
 8000204:	428b      	cmp	r3, r1
 8000206:	d301      	bcc.n	800020c <__udivsi3+0xcc>
 8000208:	010b      	lsls	r3, r1, #4
 800020a:	1ac0      	subs	r0, r0, r3
 800020c:	4152      	adcs	r2, r2
 800020e:	08c3      	lsrs	r3, r0, #3
 8000210:	428b      	cmp	r3, r1
 8000212:	d301      	bcc.n	8000218 <__udivsi3+0xd8>
 8000214:	00cb      	lsls	r3, r1, #3
 8000216:	1ac0      	subs	r0, r0, r3
 8000218:	4152      	adcs	r2, r2
 800021a:	0883      	lsrs	r3, r0, #2
 800021c:	428b      	cmp	r3, r1
 800021e:	d301      	bcc.n	8000224 <__udivsi3+0xe4>
 8000220:	008b      	lsls	r3, r1, #2
 8000222:	1ac0      	subs	r0, r0, r3
 8000224:	4152      	adcs	r2, r2
 8000226:	0843      	lsrs	r3, r0, #1
 8000228:	428b      	cmp	r3, r1
 800022a:	d301      	bcc.n	8000230 <__udivsi3+0xf0>
 800022c:	004b      	lsls	r3, r1, #1
 800022e:	1ac0      	subs	r0, r0, r3
 8000230:	4152      	adcs	r2, r2
 8000232:	1a41      	subs	r1, r0, r1
 8000234:	d200      	bcs.n	8000238 <__udivsi3+0xf8>
 8000236:	4601      	mov	r1, r0
 8000238:	4152      	adcs	r2, r2
 800023a:	4610      	mov	r0, r2
 800023c:	4770      	bx	lr
 800023e:	e7ff      	b.n	8000240 <__udivsi3+0x100>
 8000240:	b501      	push	{r0, lr}
 8000242:	2000      	movs	r0, #0
 8000244:	f000 f806 	bl	8000254 <__aeabi_idiv0>
 8000248:	bd02      	pop	{r1, pc}
 800024a:	46c0      	nop			@ (mov r8, r8)

0800024c <__aeabi_uidivmod>:
 800024c:	2900      	cmp	r1, #0
 800024e:	d0f7      	beq.n	8000240 <__udivsi3+0x100>
 8000250:	e776      	b.n	8000140 <__udivsi3>
 8000252:	4770      	bx	lr

08000254 <__aeabi_idiv0>:
 8000254:	4770      	bx	lr
 8000256:	46c0      	nop			@ (mov r8, r8)

08000258 <SystemClock_Config>:
 8000258:	b530      	push	{r4, r5, lr}
 800025a:	2430      	movs	r4, #48	@ 0x30
 800025c:	2510      	movs	r5, #16
 800025e:	b099      	sub	sp, #100	@ 0x64
 8000260:	0022      	movs	r2, r4
 8000262:	2100      	movs	r1, #0
 8000264:	a80c      	add	r0, sp, #48	@ 0x30
 8000266:	f003 ffdc 	bl	8004222 <memset>
 800026a:	002a      	movs	r2, r5
 800026c:	2100      	movs	r1, #0
 800026e:	a801      	add	r0, sp, #4
 8000270:	f003 ffd7 	bl	8004222 <memset>
 8000274:	2218      	movs	r2, #24
 8000276:	2100      	movs	r1, #0
 8000278:	a805      	add	r0, sp, #20
 800027a:	f003 ffd2 	bl	8004222 <memset>
 800027e:	940b      	str	r4, [sp, #44]	@ 0x2c
 8000280:	a80b      	add	r0, sp, #44	@ 0x2c
 8000282:	3c2f      	subs	r4, #47	@ 0x2f
 8000284:	9413      	str	r4, [sp, #76]	@ 0x4c
 8000286:	9410      	str	r4, [sp, #64]	@ 0x40
 8000288:	9511      	str	r5, [sp, #68]	@ 0x44
 800028a:	f001 fd97 	bl	8001dbc <HAL_RCC_OscConfig>
 800028e:	2800      	cmp	r0, #0
 8000290:	d001      	beq.n	8000296 <SystemClock_Config+0x3e>
 8000292:	b672      	cpsid	i
 8000294:	e7fe      	b.n	8000294 <SystemClock_Config+0x3c>
 8000296:	2307      	movs	r3, #7
 8000298:	9003      	str	r0, [sp, #12]
 800029a:	9301      	str	r3, [sp, #4]
 800029c:	9004      	str	r0, [sp, #16]
 800029e:	3b04      	subs	r3, #4
 80002a0:	0021      	movs	r1, r4
 80002a2:	a801      	add	r0, sp, #4
 80002a4:	9302      	str	r3, [sp, #8]
 80002a6:	f002 f80f 	bl	80022c8 <HAL_RCC_ClockConfig>
 80002aa:	2800      	cmp	r0, #0
 80002ac:	d001      	beq.n	80002b2 <SystemClock_Config+0x5a>
 80002ae:	b672      	cpsid	i
 80002b0:	e7fe      	b.n	80002b0 <SystemClock_Config+0x58>
 80002b2:	2380      	movs	r3, #128	@ 0x80
 80002b4:	900a      	str	r0, [sp, #40]	@ 0x28
 80002b6:	029b      	lsls	r3, r3, #10
 80002b8:	a805      	add	r0, sp, #20
 80002ba:	9305      	str	r3, [sp, #20]
 80002bc:	f002 f88e 	bl	80023dc <HAL_RCCEx_PeriphCLKConfig>
 80002c0:	2800      	cmp	r0, #0
 80002c2:	d001      	beq.n	80002c8 <SystemClock_Config+0x70>
 80002c4:	b672      	cpsid	i
 80002c6:	e7fe      	b.n	80002c6 <SystemClock_Config+0x6e>
 80002c8:	b019      	add	sp, #100	@ 0x64
 80002ca:	bd30      	pop	{r4, r5, pc}

080002cc <main>:
 80002cc:	b5f0      	push	{r4, r5, r6, r7, lr}
 80002ce:	b08b      	sub	sp, #44	@ 0x2c
 80002d0:	f000 fab0 	bl	8000834 <HAL_Init>
 80002d4:	f7ff ffc0 	bl	8000258 <SystemClock_Config>
 80002d8:	2214      	movs	r2, #20
 80002da:	2100      	movs	r1, #0
 80002dc:	a805      	add	r0, sp, #20
 80002de:	f003 ffa0 	bl	8004222 <memset>
 80002e2:	2280      	movs	r2, #128	@ 0x80
 80002e4:	4c76      	ldr	r4, [pc, #472]	@ (80004c0 <main+0x1f4>)
 80002e6:	0292      	lsls	r2, r2, #10
 80002e8:	6963      	ldr	r3, [r4, #20]
 80002ea:	21c3      	movs	r1, #195	@ 0xc3
 80002ec:	4313      	orrs	r3, r2
 80002ee:	6163      	str	r3, [r4, #20]
 80002f0:	6963      	ldr	r3, [r4, #20]
 80002f2:	4874      	ldr	r0, [pc, #464]	@ (80004c4 <main+0x1f8>)
 80002f4:	4013      	ands	r3, r2
 80002f6:	2280      	movs	r2, #128	@ 0x80
 80002f8:	9301      	str	r3, [sp, #4]
 80002fa:	9b01      	ldr	r3, [sp, #4]
 80002fc:	6963      	ldr	r3, [r4, #20]
 80002fe:	02d2      	lsls	r2, r2, #11
 8000300:	4313      	orrs	r3, r2
 8000302:	6163      	str	r3, [r4, #20]
 8000304:	6963      	ldr	r3, [r4, #20]
 8000306:	2780      	movs	r7, #128	@ 0x80
 8000308:	4013      	ands	r3, r2
 800030a:	9302      	str	r3, [sp, #8]
 800030c:	2201      	movs	r2, #1
 800030e:	9b02      	ldr	r3, [sp, #8]
 8000310:	f000 fee2 	bl	80010d8 <HAL_GPIO_WritePin>
 8000314:	2181      	movs	r1, #129	@ 0x81
 8000316:	2090      	movs	r0, #144	@ 0x90
 8000318:	2201      	movs	r2, #1
 800031a:	0209      	lsls	r1, r1, #8
 800031c:	05c0      	lsls	r0, r0, #23
 800031e:	f000 fedb 	bl	80010d8 <HAL_GPIO_WritePin>
 8000322:	2090      	movs	r0, #144	@ 0x90
 8000324:	00bf      	lsls	r7, r7, #2
 8000326:	2200      	movs	r2, #0
 8000328:	0039      	movs	r1, r7
 800032a:	05c0      	lsls	r0, r0, #23
 800032c:	f000 fed4 	bl	80010d8 <HAL_GPIO_WritePin>
 8000330:	23c3      	movs	r3, #195	@ 0xc3
 8000332:	2500      	movs	r5, #0
 8000334:	2611      	movs	r6, #17
 8000336:	4863      	ldr	r0, [pc, #396]	@ (80004c4 <main+0x1f8>)
 8000338:	9305      	str	r3, [sp, #20]
 800033a:	a905      	add	r1, sp, #20
 800033c:	3bc0      	subs	r3, #192	@ 0xc0
 800033e:	9606      	str	r6, [sp, #24]
 8000340:	9308      	str	r3, [sp, #32]
 8000342:	9507      	str	r5, [sp, #28]
 8000344:	f000 fe16 	bl	8000f74 <HAL_GPIO_Init>
 8000348:	2281      	movs	r2, #129	@ 0x81
 800034a:	2090      	movs	r0, #144	@ 0x90
 800034c:	2303      	movs	r3, #3
 800034e:	0212      	lsls	r2, r2, #8
 8000350:	a905      	add	r1, sp, #20
 8000352:	05c0      	lsls	r0, r0, #23
 8000354:	9205      	str	r2, [sp, #20]
 8000356:	9308      	str	r3, [sp, #32]
 8000358:	9606      	str	r6, [sp, #24]
 800035a:	9507      	str	r5, [sp, #28]
 800035c:	f000 fe0a 	bl	8000f74 <HAL_GPIO_Init>
 8000360:	2090      	movs	r0, #144	@ 0x90
 8000362:	3e10      	subs	r6, #16
 8000364:	a905      	add	r1, sp, #20
 8000366:	05c0      	lsls	r0, r0, #23
 8000368:	9705      	str	r7, [sp, #20]
 800036a:	9606      	str	r6, [sp, #24]
 800036c:	9507      	str	r5, [sp, #28]
 800036e:	9508      	str	r5, [sp, #32]
 8000370:	f000 fe00 	bl	8000f74 <HAL_GPIO_Init>
 8000374:	2380      	movs	r3, #128	@ 0x80
 8000376:	4853      	ldr	r0, [pc, #332]	@ (80004c4 <main+0x1f8>)
 8000378:	005b      	lsls	r3, r3, #1
 800037a:	a905      	add	r1, sp, #20
 800037c:	9305      	str	r3, [sp, #20]
 800037e:	9506      	str	r5, [sp, #24]
 8000380:	9507      	str	r5, [sp, #28]
 8000382:	f000 fdf7 	bl	8000f74 <HAL_GPIO_Init>
 8000386:	6963      	ldr	r3, [r4, #20]
 8000388:	002a      	movs	r2, r5
 800038a:	4333      	orrs	r3, r6
 800038c:	6163      	str	r3, [r4, #20]
 800038e:	6963      	ldr	r3, [r4, #20]
 8000390:	0031      	movs	r1, r6
 8000392:	4033      	ands	r3, r6
 8000394:	2009      	movs	r0, #9
 8000396:	9300      	str	r3, [sp, #0]
 8000398:	9b00      	ldr	r3, [sp, #0]
 800039a:	f000 fce3 	bl	8000d64 <HAL_NVIC_SetPriority>
 800039e:	2009      	movs	r0, #9
 80003a0:	f000 fd0a 	bl	8000db8 <HAL_NVIC_EnableIRQ>
 80003a4:	220c      	movs	r2, #12
 80003a6:	0029      	movs	r1, r5
 80003a8:	a805      	add	r0, sp, #20
 80003aa:	f003 ff3a 	bl	8004222 <memset>
 80003ae:	4c46      	ldr	r4, [pc, #280]	@ (80004c8 <main+0x1fc>)
 80003b0:	4b46      	ldr	r3, [pc, #280]	@ (80004cc <main+0x200>)
 80003b2:	0020      	movs	r0, r4
 80003b4:	6023      	str	r3, [r4, #0]
 80003b6:	2310      	movs	r3, #16
 80003b8:	60a3      	str	r3, [r4, #8]
 80003ba:	3b0c      	subs	r3, #12
 80003bc:	6163      	str	r3, [r4, #20]
 80003be:	23c2      	movs	r3, #194	@ 0xc2
 80003c0:	33ff      	adds	r3, #255	@ 0xff
 80003c2:	61e3      	str	r3, [r4, #28]
 80003c4:	1d63      	adds	r3, r4, #5
 80003c6:	6065      	str	r5, [r4, #4]
 80003c8:	60e5      	str	r5, [r4, #12]
 80003ca:	6126      	str	r6, [r4, #16]
 80003cc:	61a5      	str	r5, [r4, #24]
 80003ce:	6225      	str	r5, [r4, #32]
 80003d0:	77dd      	strb	r5, [r3, #31]
 80003d2:	62a6      	str	r6, [r4, #40]	@ 0x28
 80003d4:	f000 fab2 	bl	800093c <HAL_ADC_Init>
 80003d8:	42a8      	cmp	r0, r5
 80003da:	d001      	beq.n	80003e0 <main+0x114>
 80003dc:	b672      	cpsid	i
 80003de:	e7fe      	b.n	80003de <main+0x112>
 80003e0:	2380      	movs	r3, #128	@ 0x80
 80003e2:	015b      	lsls	r3, r3, #5
 80003e4:	9306      	str	r3, [sp, #24]
 80003e6:	2380      	movs	r3, #128	@ 0x80
 80003e8:	9005      	str	r0, [sp, #20]
 80003ea:	055b      	lsls	r3, r3, #21
 80003ec:	0020      	movs	r0, r4
 80003ee:	a905      	add	r1, sp, #20
 80003f0:	9307      	str	r3, [sp, #28]
 80003f2:	f000 fbdb 	bl	8000bac <HAL_ADC_ConfigChannel>
 80003f6:	1e03      	subs	r3, r0, #0
 80003f8:	d001      	beq.n	80003fe <main+0x132>
 80003fa:	b672      	cpsid	i
 80003fc:	e7fe      	b.n	80003fc <main+0x130>
 80003fe:	4834      	ldr	r0, [pc, #208]	@ (80004d0 <main+0x204>)
 8000400:	4a34      	ldr	r2, [pc, #208]	@ (80004d4 <main+0x208>)
 8000402:	2608      	movs	r6, #8
 8000404:	6002      	str	r2, [r0, #0]
 8000406:	2282      	movs	r2, #130	@ 0x82
 8000408:	0052      	lsls	r2, r2, #1
 800040a:	6042      	str	r2, [r0, #4]
 800040c:	32fd      	adds	r2, #253	@ 0xfd
 800040e:	32ff      	adds	r2, #255	@ 0xff
 8000410:	60c2      	str	r2, [r0, #12]
 8000412:	2210      	movs	r2, #16
 8000414:	61c2      	str	r2, [r0, #28]
 8000416:	3a09      	subs	r2, #9
 8000418:	6083      	str	r3, [r0, #8]
 800041a:	6103      	str	r3, [r0, #16]
 800041c:	6143      	str	r3, [r0, #20]
 800041e:	6187      	str	r7, [r0, #24]
 8000420:	6203      	str	r3, [r0, #32]
 8000422:	6243      	str	r3, [r0, #36]	@ 0x24
 8000424:	6283      	str	r3, [r0, #40]	@ 0x28
 8000426:	62c2      	str	r2, [r0, #44]	@ 0x2c
 8000428:	6303      	str	r3, [r0, #48]	@ 0x30
 800042a:	6346      	str	r6, [r0, #52]	@ 0x34
 800042c:	f002 f86e 	bl	800250c <HAL_SPI_Init>
 8000430:	1e05      	subs	r5, r0, #0
 8000432:	d001      	beq.n	8000438 <main+0x16c>
 8000434:	b672      	cpsid	i
 8000436:	e7fe      	b.n	8000436 <main+0x16a>
 8000438:	f003 fce2 	bl	8003e00 <MX_USB_DEVICE_Init>
 800043c:	2210      	movs	r2, #16
 800043e:	0029      	movs	r1, r5
 8000440:	a805      	add	r0, sp, #20
 8000442:	f003 feee 	bl	8004222 <memset>
 8000446:	0032      	movs	r2, r6
 8000448:	0029      	movs	r1, r5
 800044a:	a803      	add	r0, sp, #12
 800044c:	f003 fee9 	bl	8004222 <memset>
 8000450:	4e21      	ldr	r6, [pc, #132]	@ (80004d8 <main+0x20c>)
 8000452:	4b22      	ldr	r3, [pc, #136]	@ (80004dc <main+0x210>)
 8000454:	0030      	movs	r0, r6
 8000456:	6033      	str	r3, [r6, #0]
 8000458:	4b21      	ldr	r3, [pc, #132]	@ (80004e0 <main+0x214>)
 800045a:	6075      	str	r5, [r6, #4]
 800045c:	60b5      	str	r5, [r6, #8]
 800045e:	60f3      	str	r3, [r6, #12]
 8000460:	6135      	str	r5, [r6, #16]
 8000462:	61b5      	str	r5, [r6, #24]
 8000464:	f002 f9e4 	bl	8002830 <HAL_TIM_Base_Init>
 8000468:	2800      	cmp	r0, #0
 800046a:	d001      	beq.n	8000470 <main+0x1a4>
 800046c:	b672      	cpsid	i
 800046e:	e7fe      	b.n	800046e <main+0x1a2>
 8000470:	2380      	movs	r3, #128	@ 0x80
 8000472:	0030      	movs	r0, r6
 8000474:	015b      	lsls	r3, r3, #5
 8000476:	a905      	add	r1, sp, #20
 8000478:	9305      	str	r3, [sp, #20]
 800047a:	f002 fa0d 	bl	8002898 <HAL_TIM_ConfigClockSource>
 800047e:	2800      	cmp	r0, #0
 8000480:	d001      	beq.n	8000486 <main+0x1ba>
 8000482:	b672      	cpsid	i
 8000484:	e7fe      	b.n	8000484 <main+0x1b8>
 8000486:	9003      	str	r0, [sp, #12]
 8000488:	9004      	str	r0, [sp, #16]
 800048a:	a903      	add	r1, sp, #12
 800048c:	0030      	movs	r0, r6
 800048e:	f002 fa99 	bl	80029c4 <HAL_TIMEx_MasterConfigSynchronization>
 8000492:	2800      	cmp	r0, #0
 8000494:	d001      	beq.n	800049a <main+0x1ce>
 8000496:	b672      	cpsid	i
 8000498:	e7fe      	b.n	8000498 <main+0x1cc>
 800049a:	4b12      	ldr	r3, [pc, #72]	@ (80004e4 <main+0x218>)
 800049c:	6bdb      	ldr	r3, [r3, #60]	@ 0x3c
 800049e:	4798      	blx	r3
 80004a0:	0020      	movs	r0, r4
 80004a2:	f000 fc07 	bl	8000cb4 <HAL_ADCEx_Calibration_Start>
 80004a6:	2064      	movs	r0, #100	@ 0x64
 80004a8:	f000 f9e6 	bl	8000878 <HAL_Delay>
 80004ac:	24fa      	movs	r4, #250	@ 0xfa
 80004ae:	0030      	movs	r0, r6
 80004b0:	f002 f8a4 	bl	80025fc <HAL_TIM_Base_Start_IT>
 80004b4:	0064      	lsls	r4, r4, #1
 80004b6:	0020      	movs	r0, r4
 80004b8:	f000 f9de 	bl	8000878 <HAL_Delay>
 80004bc:	e7fb      	b.n	80004b6 <main+0x1ea>
 80004be:	46c0      	nop			@ (mov r8, r8)
 80004c0:	40021000 	.word	0x40021000
 80004c4:	48000400 	.word	0x48000400
 80004c8:	200006dc 	.word	0x200006dc
 80004cc:	40012400 	.word	0x40012400
 80004d0:	20000634 	.word	0x20000634
 80004d4:	40013000 	.word	0x40013000
 80004d8:	200005ec 	.word	0x200005ec
 80004dc:	40000400 	.word	0x40000400
 80004e0:	000004af 	.word	0x000004af
 80004e4:	20000004 	.word	0x20000004

080004e8 <HAL_ADC_ConvCpltCallback>:
 80004e8:	b510      	push	{r4, lr}
 80004ea:	4b09      	ldr	r3, [pc, #36]	@ (8000510 <HAL_ADC_ConvCpltCallback+0x28>)
 80004ec:	4c09      	ldr	r4, [pc, #36]	@ (8000514 <HAL_ADC_ConvCpltCallback+0x2c>)
 80004ee:	881b      	ldrh	r3, [r3, #0]
 80004f0:	8821      	ldrh	r1, [r4, #0]
 80004f2:	4809      	ldr	r0, [pc, #36]	@ (8000518 <HAL_ADC_ConvCpltCallback+0x30>)
 80004f4:	5443      	strb	r3, [r0, r1]
 80004f6:	23c8      	movs	r3, #200	@ 0xc8
 80004f8:	3101      	adds	r1, #1
 80004fa:	b289      	uxth	r1, r1
 80004fc:	8021      	strh	r1, [r4, #0]
 80004fe:	009b      	lsls	r3, r3, #2
 8000500:	4299      	cmp	r1, r3
 8000502:	d903      	bls.n	800050c <HAL_ADC_ConvCpltCallback+0x24>
 8000504:	f003 fcce 	bl	8003ea4 <CDC_Transmit_FS>
 8000508:	2300      	movs	r3, #0
 800050a:	8023      	strh	r3, [r4, #0]
 800050c:	bd10      	pop	{r4, pc}
 800050e:	46c0      	nop			@ (mov r8, r8)
 8000510:	200005da 	.word	0x200005da
 8000514:	200001d8 	.word	0x200001d8
 8000518:	200001da 	.word	0x200001da

0800051c <Error_Handler>:
 800051c:	b672      	cpsid	i
 800051e:	e7fe      	b.n	800051e <Error_Handler+0x2>

08000520 <HAL_MspInit>:
 8000520:	2101      	movs	r1, #1
 8000522:	4b0a      	ldr	r3, [pc, #40]	@ (800054c <HAL_MspInit+0x2c>)
 8000524:	b082      	sub	sp, #8
 8000526:	699a      	ldr	r2, [r3, #24]
 8000528:	430a      	orrs	r2, r1
 800052a:	619a      	str	r2, [r3, #24]
 800052c:	699a      	ldr	r2, [r3, #24]
 800052e:	400a      	ands	r2, r1
 8000530:	2180      	movs	r1, #128	@ 0x80
 8000532:	9200      	str	r2, [sp, #0]
 8000534:	9a00      	ldr	r2, [sp, #0]
 8000536:	69da      	ldr	r2, [r3, #28]
 8000538:	0549      	lsls	r1, r1, #21
 800053a:	430a      	orrs	r2, r1
 800053c:	61da      	str	r2, [r3, #28]
 800053e:	69db      	ldr	r3, [r3, #28]
 8000540:	400b      	ands	r3, r1
 8000542:	9301      	str	r3, [sp, #4]
 8000544:	9b01      	ldr	r3, [sp, #4]
 8000546:	b002      	add	sp, #8
 8000548:	4770      	bx	lr
 800054a:	46c0      	nop			@ (mov r8, r8)
 800054c:	40021000 	.word	0x40021000

08000550 <HAL_ADC_MspInit>:
 8000550:	b530      	push	{r4, r5, lr}
 8000552:	0005      	movs	r5, r0
 8000554:	b089      	sub	sp, #36	@ 0x24
 8000556:	2214      	movs	r2, #20
 8000558:	2100      	movs	r1, #0
 800055a:	a803      	add	r0, sp, #12
 800055c:	f003 fe61 	bl	8004222 <memset>
 8000560:	4b1b      	ldr	r3, [pc, #108]	@ (80005d0 <HAL_ADC_MspInit+0x80>)
 8000562:	682a      	ldr	r2, [r5, #0]
 8000564:	429a      	cmp	r2, r3
 8000566:	d130      	bne.n	80005ca <HAL_ADC_MspInit+0x7a>
 8000568:	2180      	movs	r1, #128	@ 0x80
 800056a:	4b1a      	ldr	r3, [pc, #104]	@ (80005d4 <HAL_ADC_MspInit+0x84>)
 800056c:	0089      	lsls	r1, r1, #2
 800056e:	699a      	ldr	r2, [r3, #24]
 8000570:	2090      	movs	r0, #144	@ 0x90
 8000572:	430a      	orrs	r2, r1
 8000574:	619a      	str	r2, [r3, #24]
 8000576:	699a      	ldr	r2, [r3, #24]
 8000578:	05c0      	lsls	r0, r0, #23
 800057a:	400a      	ands	r2, r1
 800057c:	2180      	movs	r1, #128	@ 0x80
 800057e:	9201      	str	r2, [sp, #4]
 8000580:	9a01      	ldr	r2, [sp, #4]
 8000582:	695a      	ldr	r2, [r3, #20]
 8000584:	0289      	lsls	r1, r1, #10
 8000586:	430a      	orrs	r2, r1
 8000588:	615a      	str	r2, [r3, #20]
 800058a:	695b      	ldr	r3, [r3, #20]
 800058c:	400b      	ands	r3, r1
 800058e:	9302      	str	r3, [sp, #8]
 8000590:	9b02      	ldr	r3, [sp, #8]
 8000592:	23ff      	movs	r3, #255	@ 0xff
 8000594:	a903      	add	r1, sp, #12
 8000596:	9303      	str	r3, [sp, #12]
 8000598:	3bfc      	subs	r3, #252	@ 0xfc
 800059a:	9304      	str	r3, [sp, #16]
 800059c:	f000 fcea 	bl	8000f74 <HAL_GPIO_Init>
 80005a0:	4c0d      	ldr	r4, [pc, #52]	@ (80005d8 <HAL_ADC_MspInit+0x88>)
 80005a2:	4b0e      	ldr	r3, [pc, #56]	@ (80005dc <HAL_ADC_MspInit+0x8c>)
 80005a4:	2280      	movs	r2, #128	@ 0x80
 80005a6:	6023      	str	r3, [r4, #0]
 80005a8:	2300      	movs	r3, #0
 80005aa:	0020      	movs	r0, r4
 80005ac:	6063      	str	r3, [r4, #4]
 80005ae:	60a3      	str	r3, [r4, #8]
 80005b0:	60e2      	str	r2, [r4, #12]
 80005b2:	6123      	str	r3, [r4, #16]
 80005b4:	6163      	str	r3, [r4, #20]
 80005b6:	61a3      	str	r3, [r4, #24]
 80005b8:	61e3      	str	r3, [r4, #28]
 80005ba:	f000 fc23 	bl	8000e04 <HAL_DMA_Init>
 80005be:	2800      	cmp	r0, #0
 80005c0:	d001      	beq.n	80005c6 <HAL_ADC_MspInit+0x76>
 80005c2:	f7ff ffab 	bl	800051c <Error_Handler>
 80005c6:	632c      	str	r4, [r5, #48]	@ 0x30
 80005c8:	6265      	str	r5, [r4, #36]	@ 0x24
 80005ca:	b009      	add	sp, #36	@ 0x24
 80005cc:	bd30      	pop	{r4, r5, pc}
 80005ce:	46c0      	nop			@ (mov r8, r8)
 80005d0:	40012400 	.word	0x40012400
 80005d4:	40021000 	.word	0x40021000
 80005d8:	20000698 	.word	0x20000698
 80005dc:	40020008 	.word	0x40020008

080005e0 <HAL_SPI_MspInit>:
 80005e0:	b510      	push	{r4, lr}
 80005e2:	0004      	movs	r4, r0
 80005e4:	b088      	sub	sp, #32
 80005e6:	2214      	movs	r2, #20
 80005e8:	2100      	movs	r1, #0
 80005ea:	a803      	add	r0, sp, #12
 80005ec:	f003 fe19 	bl	8004222 <memset>
 80005f0:	4b11      	ldr	r3, [pc, #68]	@ (8000638 <HAL_SPI_MspInit+0x58>)
 80005f2:	6822      	ldr	r2, [r4, #0]
 80005f4:	429a      	cmp	r2, r3
 80005f6:	d11c      	bne.n	8000632 <HAL_SPI_MspInit+0x52>
 80005f8:	2180      	movs	r1, #128	@ 0x80
 80005fa:	4b10      	ldr	r3, [pc, #64]	@ (800063c <HAL_SPI_MspInit+0x5c>)
 80005fc:	0149      	lsls	r1, r1, #5
 80005fe:	699a      	ldr	r2, [r3, #24]
 8000600:	480f      	ldr	r0, [pc, #60]	@ (8000640 <HAL_SPI_MspInit+0x60>)
 8000602:	430a      	orrs	r2, r1
 8000604:	619a      	str	r2, [r3, #24]
 8000606:	699a      	ldr	r2, [r3, #24]
 8000608:	400a      	ands	r2, r1
 800060a:	2180      	movs	r1, #128	@ 0x80
 800060c:	9201      	str	r2, [sp, #4]
 800060e:	9a01      	ldr	r2, [sp, #4]
 8000610:	695a      	ldr	r2, [r3, #20]
 8000612:	02c9      	lsls	r1, r1, #11
 8000614:	430a      	orrs	r2, r1
 8000616:	615a      	str	r2, [r3, #20]
 8000618:	695b      	ldr	r3, [r3, #20]
 800061a:	400b      	ands	r3, r1
 800061c:	9302      	str	r3, [sp, #8]
 800061e:	9b02      	ldr	r3, [sp, #8]
 8000620:	2338      	movs	r3, #56	@ 0x38
 8000622:	9303      	str	r3, [sp, #12]
 8000624:	3b36      	subs	r3, #54	@ 0x36
 8000626:	9304      	str	r3, [sp, #16]
 8000628:	a903      	add	r1, sp, #12
 800062a:	3301      	adds	r3, #1
 800062c:	9306      	str	r3, [sp, #24]
 800062e:	f000 fca1 	bl	8000f74 <HAL_GPIO_Init>
 8000632:	b008      	add	sp, #32
 8000634:	bd10      	pop	{r4, pc}
 8000636:	46c0      	nop			@ (mov r8, r8)
 8000638:	40013000 	.word	0x40013000
 800063c:	40021000 	.word	0x40021000
 8000640:	48000400 	.word	0x48000400

08000644 <HAL_TIM_Base_MspInit>:
 8000644:	b507      	push	{r0, r1, r2, lr}
 8000646:	4b0b      	ldr	r3, [pc, #44]	@ (8000674 <HAL_TIM_Base_MspInit+0x30>)
 8000648:	6802      	ldr	r2, [r0, #0]
 800064a:	429a      	cmp	r2, r3
 800064c:	d110      	bne.n	8000670 <HAL_TIM_Base_MspInit+0x2c>
 800064e:	2102      	movs	r1, #2
 8000650:	4b09      	ldr	r3, [pc, #36]	@ (8000678 <HAL_TIM_Base_MspInit+0x34>)
 8000652:	2010      	movs	r0, #16
 8000654:	69da      	ldr	r2, [r3, #28]
 8000656:	430a      	orrs	r2, r1
 8000658:	61da      	str	r2, [r3, #28]
 800065a:	69db      	ldr	r3, [r3, #28]
 800065c:	2200      	movs	r2, #0
 800065e:	400b      	ands	r3, r1
 8000660:	9301      	str	r3, [sp, #4]
 8000662:	3901      	subs	r1, #1
 8000664:	9b01      	ldr	r3, [sp, #4]
 8000666:	f000 fb7d 	bl	8000d64 <HAL_NVIC_SetPriority>
 800066a:	2010      	movs	r0, #16
 800066c:	f000 fba4 	bl	8000db8 <HAL_NVIC_EnableIRQ>
 8000670:	bd07      	pop	{r0, r1, r2, pc}
 8000672:	46c0      	nop			@ (mov r8, r8)
 8000674:	40000400 	.word	0x40000400
 8000678:	40021000 	.word	0x40021000

0800067c <NMI_Handler>:
 800067c:	e7fe      	b.n	800067c <NMI_Handler>

0800067e <HardFault_Handler>:
 800067e:	e7fe      	b.n	800067e <HardFault_Handler>

08000680 <SVC_Handler>:
 8000680:	4770      	bx	lr

08000682 <PendSV_Handler>:
 8000682:	4770      	bx	lr

08000684 <SysTick_Handler>:
 8000684:	b510      	push	{r4, lr}
 8000686:	f000 f8e5 	bl	8000854 <HAL_IncTick>
 800068a:	bd10      	pop	{r4, pc}

0800068c <DMA1_Channel1_IRQHandler>:
 800068c:	b510      	push	{r4, lr}
 800068e:	4802      	ldr	r0, [pc, #8]	@ (8000698 <DMA1_Channel1_IRQHandler+0xc>)
 8000690:	f000 fc26 	bl	8000ee0 <HAL_DMA_IRQHandler>
 8000694:	bd10      	pop	{r4, pc}
 8000696:	46c0      	nop			@ (mov r8, r8)
 8000698:	20000698 	.word	0x20000698

0800069c <TIM3_IRQHandler>:
 800069c:	b510      	push	{r4, lr}
 800069e:	2201      	movs	r2, #1
 80006a0:	4903      	ldr	r1, [pc, #12]	@ (80006b0 <TIM3_IRQHandler+0x14>)
 80006a2:	4804      	ldr	r0, [pc, #16]	@ (80006b4 <TIM3_IRQHandler+0x18>)
 80006a4:	f000 f9ec 	bl	8000a80 <HAL_ADC_Start_DMA>
 80006a8:	4803      	ldr	r0, [pc, #12]	@ (80006b8 <TIM3_IRQHandler+0x1c>)
 80006aa:	f001 ffd6 	bl	800265a <HAL_TIM_IRQHandler>
 80006ae:	bd10      	pop	{r4, pc}
 80006b0:	200005da 	.word	0x200005da
 80006b4:	200006dc 	.word	0x200006dc
 80006b8:	200005ec 	.word	0x200005ec

080006bc <USB_IRQHandler>:
 80006bc:	b510      	push	{r4, lr}
 80006be:	4802      	ldr	r0, [pc, #8]	@ (80006c8 <USB_IRQHandler+0xc>)
 80006c0:	f000 fd80 	bl	80011c4 <HAL_PCD_IRQHandler>
 80006c4:	bd10      	pop	{r4, pc}
 80006c6:	46c0      	nop			@ (mov r8, r8)
 80006c8:	20000cc8 	.word	0x20000cc8

080006cc <SystemInit>:
 80006cc:	4770      	bx	lr
	...

080006d0 <Reset_Handler>:
 80006d0:	4813      	ldr	r0, [pc, #76]	@ (8000720 <LoopForever+0x2>)
 80006d2:	4685      	mov	sp, r0
 80006d4:	f7ff fffa 	bl	80006cc <SystemInit>
 80006d8:	4812      	ldr	r0, [pc, #72]	@ (8000724 <LoopForever+0x6>)
 80006da:	6801      	ldr	r1, [r0, #0]
 80006dc:	0e09      	lsrs	r1, r1, #24
 80006de:	4a12      	ldr	r2, [pc, #72]	@ (8000728 <LoopForever+0xa>)
 80006e0:	4291      	cmp	r1, r2
 80006e2:	d105      	bne.n	80006f0 <ApplicationStart>
 80006e4:	4811      	ldr	r0, [pc, #68]	@ (800072c <LoopForever+0xe>)
 80006e6:	4912      	ldr	r1, [pc, #72]	@ (8000730 <LoopForever+0x12>)
 80006e8:	6001      	str	r1, [r0, #0]
 80006ea:	4812      	ldr	r0, [pc, #72]	@ (8000734 <LoopForever+0x16>)
 80006ec:	4912      	ldr	r1, [pc, #72]	@ (8000738 <LoopForever+0x1a>)
 80006ee:	6001      	str	r1, [r0, #0]

080006f0 <ApplicationStart>:
 80006f0:	4812      	ldr	r0, [pc, #72]	@ (800073c <LoopForever+0x1e>)
 80006f2:	4913      	ldr	r1, [pc, #76]	@ (8000740 <LoopForever+0x22>)
 80006f4:	4a13      	ldr	r2, [pc, #76]	@ (8000744 <LoopForever+0x26>)
 80006f6:	2300      	movs	r3, #0
 80006f8:	e002      	b.n	8000700 <LoopCopyDataInit>

080006fa <CopyDataInit>:
 80006fa:	58d4      	ldr	r4, [r2, r3]
 80006fc:	50c4      	str	r4, [r0, r3]
 80006fe:	3304      	adds	r3, #4

08000700 <LoopCopyDataInit>:
 8000700:	18c4      	adds	r4, r0, r3
 8000702:	428c      	cmp	r4, r1
 8000704:	d3f9      	bcc.n	80006fa <CopyDataInit>
 8000706:	4a10      	ldr	r2, [pc, #64]	@ (8000748 <LoopForever+0x2a>)
 8000708:	4c10      	ldr	r4, [pc, #64]	@ (800074c <LoopForever+0x2e>)
 800070a:	2300      	movs	r3, #0
 800070c:	e001      	b.n	8000712 <LoopFillZerobss>

0800070e <FillZerobss>:
 800070e:	6013      	str	r3, [r2, #0]
 8000710:	3204      	adds	r2, #4

08000712 <LoopFillZerobss>:
 8000712:	42a2      	cmp	r2, r4
 8000714:	d3fb      	bcc.n	800070e <FillZerobss>
 8000716:	f003 fd8d 	bl	8004234 <__libc_init_array>
 800071a:	f7ff fdd7 	bl	80002cc <main>

0800071e <LoopForever>:
 800071e:	e7fe      	b.n	800071e <LoopForever>
 8000720:	20001800 	.word	0x20001800
 8000724:	00000004 	.word	0x00000004
 8000728:	0000001f 	.word	0x0000001f
 800072c:	40021018 	.word	0x40021018
 8000730:	00000001 	.word	0x00000001
 8000734:	40010000 	.word	0x40010000
 8000738:	00000000 	.word	0x00000000
 800073c:	20000000 	.word	0x20000000
 8000740:	200001bc 	.word	0x200001bc
 8000744:	08004480 	.word	0x08004480
 8000748:	200001bc 	.word	0x200001bc
 800074c:	20000fa4 	.word	0x20000fa4

08000750 <ADC1_IRQHandler>:
 8000750:	e7fe      	b.n	8000750 <ADC1_IRQHandler>

08000752 <drawScreen>:
 8000752:	4770      	bx	lr

08000754 <setPinHiZ>:
 8000754:	b530      	push	{r4, r5, lr}
 8000756:	b087      	sub	sp, #28
 8000758:	0004      	movs	r4, r0
 800075a:	000d      	movs	r5, r1
 800075c:	220c      	movs	r2, #12
 800075e:	2100      	movs	r1, #0
 8000760:	a803      	add	r0, sp, #12
 8000762:	f003 fd5e 	bl	8004222 <memset>
 8000766:	2303      	movs	r3, #3
 8000768:	2201      	movs	r2, #1
 800076a:	0029      	movs	r1, r5
 800076c:	0020      	movs	r0, r4
 800076e:	9304      	str	r3, [sp, #16]
 8000770:	330e      	adds	r3, #14
 8000772:	9302      	str	r3, [sp, #8]
 8000774:	9501      	str	r5, [sp, #4]
 8000776:	f000 fcaf 	bl	80010d8 <HAL_GPIO_WritePin>
 800077a:	0020      	movs	r0, r4
 800077c:	a901      	add	r1, sp, #4
 800077e:	f000 fbf9 	bl	8000f74 <HAL_GPIO_Init>
 8000782:	b007      	add	sp, #28
 8000784:	bd30      	pop	{r4, r5, pc}
	...

08000788 <setLEDHiZ>:
 8000788:	230c      	movs	r3, #12
 800078a:	223c      	movs	r2, #60	@ 0x3c
 800078c:	434b      	muls	r3, r1
 800078e:	4342      	muls	r2, r0
 8000790:	b510      	push	{r4, lr}
 8000792:	4c06      	ldr	r4, [pc, #24]	@ (80007ac <setLEDHiZ+0x24>)
 8000794:	189b      	adds	r3, r3, r2
 8000796:	5b19      	ldrh	r1, [r3, r4]
 8000798:	18e4      	adds	r4, r4, r3
 800079a:	6860      	ldr	r0, [r4, #4]
 800079c:	f7ff ffda 	bl	8000754 <setPinHiZ>
 80007a0:	8861      	ldrh	r1, [r4, #2]
 80007a2:	68a0      	ldr	r0, [r4, #8]
 80007a4:	f7ff ffd6 	bl	8000754 <setPinHiZ>
 80007a8:	bd10      	pop	{r4, pc}
 80007aa:	46c0      	nop			@ (mov r8, r8)
 80007ac:	080042a4 	.word	0x080042a4

080007b0 <init>:
 80007b0:	b5f7      	push	{r0, r1, r2, r4, r5, r6, r7, lr}
 80007b2:	4e0d      	ldr	r6, [pc, #52]	@ (80007e8 <init+0x38>)
 80007b4:	2400      	movs	r4, #0
 80007b6:	0033      	movs	r3, r6
 80007b8:	2705      	movs	r7, #5
 80007ba:	3334      	adds	r3, #52	@ 0x34
 80007bc:	84b4      	strh	r4, [r6, #36]	@ 0x24
 80007be:	701c      	strb	r4, [r3, #0]
 80007c0:	003b      	movs	r3, r7
 80007c2:	2500      	movs	r5, #0
 80007c4:	4363      	muls	r3, r4
 80007c6:	18f3      	adds	r3, r6, r3
 80007c8:	9301      	str	r3, [sp, #4]
 80007ca:	2300      	movs	r3, #0
 80007cc:	9a01      	ldr	r2, [sp, #4]
 80007ce:	b2e9      	uxtb	r1, r5
 80007d0:	5553      	strb	r3, [r2, r5]
 80007d2:	b2e0      	uxtb	r0, r4
 80007d4:	3501      	adds	r5, #1
 80007d6:	f7ff ffd7 	bl	8000788 <setLEDHiZ>
 80007da:	2d05      	cmp	r5, #5
 80007dc:	d1f5      	bne.n	80007ca <init+0x1a>
 80007de:	3401      	adds	r4, #1
 80007e0:	2c06      	cmp	r4, #6
 80007e2:	d1ed      	bne.n	80007c0 <init+0x10>
 80007e4:	bdf7      	pop	{r0, r1, r2, r4, r5, r6, r7, pc}
 80007e6:	46c0      	nop			@ (mov r8, r8)
 80007e8:	20000004 	.word	0x20000004

080007ec <HAL_InitTick>:
 80007ec:	b570      	push	{r4, r5, r6, lr}
 80007ee:	0005      	movs	r5, r0
 80007f0:	20fa      	movs	r0, #250	@ 0xfa
 80007f2:	4b0d      	ldr	r3, [pc, #52]	@ (8000828 <HAL_InitTick+0x3c>)
 80007f4:	0080      	lsls	r0, r0, #2
 80007f6:	7819      	ldrb	r1, [r3, #0]
 80007f8:	f7ff fca2 	bl	8000140 <__udivsi3>
 80007fc:	4c0b      	ldr	r4, [pc, #44]	@ (800082c <HAL_InitTick+0x40>)
 80007fe:	0001      	movs	r1, r0
 8000800:	6820      	ldr	r0, [r4, #0]
 8000802:	f7ff fc9d 	bl	8000140 <__udivsi3>
 8000806:	f000 fae3 	bl	8000dd0 <HAL_SYSTICK_Config>
 800080a:	0004      	movs	r4, r0
 800080c:	2001      	movs	r0, #1
 800080e:	2c00      	cmp	r4, #0
 8000810:	d109      	bne.n	8000826 <HAL_InitTick+0x3a>
 8000812:	2d03      	cmp	r5, #3
 8000814:	d807      	bhi.n	8000826 <HAL_InitTick+0x3a>
 8000816:	3802      	subs	r0, #2
 8000818:	0022      	movs	r2, r4
 800081a:	0029      	movs	r1, r5
 800081c:	f000 faa2 	bl	8000d64 <HAL_NVIC_SetPriority>
 8000820:	0020      	movs	r0, r4
 8000822:	4b03      	ldr	r3, [pc, #12]	@ (8000830 <HAL_InitTick+0x44>)
 8000824:	601d      	str	r5, [r3, #0]
 8000826:	bd70      	pop	{r4, r5, r6, pc}
 8000828:	20000044 	.word	0x20000044
 800082c:	20000000 	.word	0x20000000
 8000830:	20000048 	.word	0x20000048

08000834 <HAL_Init>:
 8000834:	2310      	movs	r3, #16
 8000836:	4a06      	ldr	r2, [pc, #24]	@ (8000850 <HAL_Init+0x1c>)
 8000838:	b510      	push	{r4, lr}
 800083a:	6811      	ldr	r1, [r2, #0]
 800083c:	2003      	movs	r0, #3
 800083e:	430b      	orrs	r3, r1
 8000840:	6013      	str	r3, [r2, #0]
 8000842:	f7ff ffd3 	bl	80007ec <HAL_InitTick>
 8000846:	f7ff fe6b 	bl	8000520 <HAL_MspInit>
 800084a:	2000      	movs	r0, #0
 800084c:	bd10      	pop	{r4, pc}
 800084e:	46c0      	nop			@ (mov r8, r8)
 8000850:	40022000 	.word	0x40022000

08000854 <HAL_IncTick>:
 8000854:	4a03      	ldr	r2, [pc, #12]	@ (8000864 <HAL_IncTick+0x10>)
 8000856:	4b04      	ldr	r3, [pc, #16]	@ (8000868 <HAL_IncTick+0x14>)
 8000858:	6811      	ldr	r1, [r2, #0]
 800085a:	781b      	ldrb	r3, [r3, #0]
 800085c:	185b      	adds	r3, r3, r1
 800085e:	6013      	str	r3, [r2, #0]
 8000860:	4770      	bx	lr
 8000862:	46c0      	nop			@ (mov r8, r8)
 8000864:	2000071c 	.word	0x2000071c
 8000868:	20000044 	.word	0x20000044

0800086c <HAL_GetTick>:
 800086c:	4b01      	ldr	r3, [pc, #4]	@ (8000874 <HAL_GetTick+0x8>)
 800086e:	6818      	ldr	r0, [r3, #0]
 8000870:	4770      	bx	lr
 8000872:	46c0      	nop			@ (mov r8, r8)
 8000874:	2000071c 	.word	0x2000071c

08000878 <HAL_Delay>:
 8000878:	b570      	push	{r4, r5, r6, lr}
 800087a:	0004      	movs	r4, r0
 800087c:	f7ff fff6 	bl	800086c <HAL_GetTick>
 8000880:	0005      	movs	r5, r0
 8000882:	1c63      	adds	r3, r4, #1
 8000884:	d002      	beq.n	800088c <HAL_Delay+0x14>
 8000886:	4b04      	ldr	r3, [pc, #16]	@ (8000898 <HAL_Delay+0x20>)
 8000888:	781b      	ldrb	r3, [r3, #0]
 800088a:	18e4      	adds	r4, r4, r3
 800088c:	f7ff ffee 	bl	800086c <HAL_GetTick>
 8000890:	1b40      	subs	r0, r0, r5
 8000892:	42a0      	cmp	r0, r4
 8000894:	d3fa      	bcc.n	800088c <HAL_Delay+0x14>
 8000896:	bd70      	pop	{r4, r5, r6, pc}
 8000898:	20000044 	.word	0x20000044

0800089c <ADC_Enable.constprop.0>:
 800089c:	2300      	movs	r3, #0
 800089e:	b573      	push	{r0, r1, r4, r5, r6, lr}
 80008a0:	2103      	movs	r1, #3
 80008a2:	9301      	str	r3, [sp, #4]
 80008a4:	6803      	ldr	r3, [r0, #0]
 80008a6:	0004      	movs	r4, r0
 80008a8:	689a      	ldr	r2, [r3, #8]
 80008aa:	400a      	ands	r2, r1
 80008ac:	2a01      	cmp	r2, #1
 80008ae:	d107      	bne.n	80008c0 <ADC_Enable.constprop.0+0x24>
 80008b0:	6819      	ldr	r1, [r3, #0]
 80008b2:	4211      	tst	r1, r2
 80008b4:	d001      	beq.n	80008ba <ADC_Enable.constprop.0+0x1e>
 80008b6:	2000      	movs	r0, #0
 80008b8:	bd76      	pop	{r1, r2, r4, r5, r6, pc}
 80008ba:	68da      	ldr	r2, [r3, #12]
 80008bc:	0412      	lsls	r2, r2, #16
 80008be:	d4fa      	bmi.n	80008b6 <ADC_Enable.constprop.0+0x1a>
 80008c0:	6899      	ldr	r1, [r3, #8]
 80008c2:	4a1b      	ldr	r2, [pc, #108]	@ (8000930 <ADC_Enable.constprop.0+0x94>)
 80008c4:	4211      	tst	r1, r2
 80008c6:	d009      	beq.n	80008dc <ADC_Enable.constprop.0+0x40>
 80008c8:	2310      	movs	r3, #16
 80008ca:	6ba2      	ldr	r2, [r4, #56]	@ 0x38
 80008cc:	4313      	orrs	r3, r2
 80008ce:	63a3      	str	r3, [r4, #56]	@ 0x38
 80008d0:	2301      	movs	r3, #1
 80008d2:	6be2      	ldr	r2, [r4, #60]	@ 0x3c
 80008d4:	4313      	orrs	r3, r2
 80008d6:	2001      	movs	r0, #1
 80008d8:	63e3      	str	r3, [r4, #60]	@ 0x3c
 80008da:	e7ed      	b.n	80008b8 <ADC_Enable.constprop.0+0x1c>
 80008dc:	2201      	movs	r2, #1
 80008de:	6899      	ldr	r1, [r3, #8]
 80008e0:	430a      	orrs	r2, r1
 80008e2:	609a      	str	r2, [r3, #8]
 80008e4:	4b13      	ldr	r3, [pc, #76]	@ (8000934 <ADC_Enable.constprop.0+0x98>)
 80008e6:	4914      	ldr	r1, [pc, #80]	@ (8000938 <ADC_Enable.constprop.0+0x9c>)
 80008e8:	6818      	ldr	r0, [r3, #0]
 80008ea:	f7ff fc29 	bl	8000140 <__udivsi3>
 80008ee:	9001      	str	r0, [sp, #4]
 80008f0:	9b01      	ldr	r3, [sp, #4]
 80008f2:	2b00      	cmp	r3, #0
 80008f4:	d117      	bne.n	8000926 <ADC_Enable.constprop.0+0x8a>
 80008f6:	f7ff ffb9 	bl	800086c <HAL_GetTick>
 80008fa:	2501      	movs	r5, #1
 80008fc:	0006      	movs	r6, r0
 80008fe:	6823      	ldr	r3, [r4, #0]
 8000900:	681b      	ldr	r3, [r3, #0]
 8000902:	422b      	tst	r3, r5
 8000904:	d1d7      	bne.n	80008b6 <ADC_Enable.constprop.0+0x1a>
 8000906:	f7ff ffb1 	bl	800086c <HAL_GetTick>
 800090a:	1b80      	subs	r0, r0, r6
 800090c:	2802      	cmp	r0, #2
 800090e:	d9f6      	bls.n	80008fe <ADC_Enable.constprop.0+0x62>
 8000910:	6823      	ldr	r3, [r4, #0]
 8000912:	681b      	ldr	r3, [r3, #0]
 8000914:	422b      	tst	r3, r5
 8000916:	d1f2      	bne.n	80008fe <ADC_Enable.constprop.0+0x62>
 8000918:	2310      	movs	r3, #16
 800091a:	6ba2      	ldr	r2, [r4, #56]	@ 0x38
 800091c:	4313      	orrs	r3, r2
 800091e:	63a3      	str	r3, [r4, #56]	@ 0x38
 8000920:	6be3      	ldr	r3, [r4, #60]	@ 0x3c
 8000922:	432b      	orrs	r3, r5
 8000924:	e7d7      	b.n	80008d6 <ADC_Enable.constprop.0+0x3a>
 8000926:	9b01      	ldr	r3, [sp, #4]
 8000928:	3b01      	subs	r3, #1
 800092a:	9301      	str	r3, [sp, #4]
 800092c:	e7e0      	b.n	80008f0 <ADC_Enable.constprop.0+0x54>
 800092e:	46c0      	nop			@ (mov r8, r8)
 8000930:	80000017 	.word	0x80000017
 8000934:	20000000 	.word	0x20000000
 8000938:	000f4240 	.word	0x000f4240

0800093c <HAL_ADC_Init>:
 800093c:	b570      	push	{r4, r5, r6, lr}
 800093e:	1e04      	subs	r4, r0, #0
 8000940:	d100      	bne.n	8000944 <HAL_ADC_Init+0x8>
 8000942:	e090      	b.n	8000a66 <HAL_ADC_Init+0x12a>
 8000944:	6b83      	ldr	r3, [r0, #56]	@ 0x38
 8000946:	2b00      	cmp	r3, #0
 8000948:	d105      	bne.n	8000956 <HAL_ADC_Init+0x1a>
 800094a:	0002      	movs	r2, r0
 800094c:	3234      	adds	r2, #52	@ 0x34
 800094e:	63c3      	str	r3, [r0, #60]	@ 0x3c
 8000950:	7013      	strb	r3, [r2, #0]
 8000952:	f7ff fdfd 	bl	8000550 <HAL_ADC_MspInit>
 8000956:	6ba3      	ldr	r3, [r4, #56]	@ 0x38
 8000958:	06db      	lsls	r3, r3, #27
 800095a:	d500      	bpl.n	800095e <HAL_ADC_Init+0x22>
 800095c:	e085      	b.n	8000a6a <HAL_ADC_Init+0x12e>
 800095e:	6822      	ldr	r2, [r4, #0]
 8000960:	6893      	ldr	r3, [r2, #8]
 8000962:	075b      	lsls	r3, r3, #29
 8000964:	d500      	bpl.n	8000968 <HAL_ADC_Init+0x2c>
 8000966:	e080      	b.n	8000a6a <HAL_ADC_Init+0x12e>
 8000968:	6ba1      	ldr	r1, [r4, #56]	@ 0x38
 800096a:	4b42      	ldr	r3, [pc, #264]	@ (8000a74 <HAL_ADC_Init+0x138>)
 800096c:	4019      	ands	r1, r3
 800096e:	3306      	adds	r3, #6
 8000970:	33ff      	adds	r3, #255	@ 0xff
 8000972:	430b      	orrs	r3, r1
 8000974:	2103      	movs	r1, #3
 8000976:	63a3      	str	r3, [r4, #56]	@ 0x38
 8000978:	6893      	ldr	r3, [r2, #8]
 800097a:	400b      	ands	r3, r1
 800097c:	2b01      	cmp	r3, #1
 800097e:	d105      	bne.n	800098c <HAL_ADC_Init+0x50>
 8000980:	6811      	ldr	r1, [r2, #0]
 8000982:	4219      	tst	r1, r3
 8000984:	d10e      	bne.n	80009a4 <HAL_ADC_Init+0x68>
 8000986:	68d3      	ldr	r3, [r2, #12]
 8000988:	041b      	lsls	r3, r3, #16
 800098a:	d40b      	bmi.n	80009a4 <HAL_ADC_Init+0x68>
 800098c:	2118      	movs	r1, #24
 800098e:	68d3      	ldr	r3, [r2, #12]
 8000990:	438b      	bics	r3, r1
 8000992:	68a1      	ldr	r1, [r4, #8]
 8000994:	430b      	orrs	r3, r1
 8000996:	60d3      	str	r3, [r2, #12]
 8000998:	6913      	ldr	r3, [r2, #16]
 800099a:	6861      	ldr	r1, [r4, #4]
 800099c:	009b      	lsls	r3, r3, #2
 800099e:	089b      	lsrs	r3, r3, #2
 80009a0:	430b      	orrs	r3, r1
 80009a2:	6113      	str	r3, [r2, #16]
 80009a4:	68d3      	ldr	r3, [r2, #12]
 80009a6:	4934      	ldr	r1, [pc, #208]	@ (8000a78 <HAL_ADC_Init+0x13c>)
 80009a8:	400b      	ands	r3, r1
 80009aa:	60d3      	str	r3, [r2, #12]
 80009ac:	7e23      	ldrb	r3, [r4, #24]
 80009ae:	7e60      	ldrb	r0, [r4, #25]
 80009b0:	039b      	lsls	r3, r3, #14
 80009b2:	03c0      	lsls	r0, r0, #15
 80009b4:	4303      	orrs	r3, r0
 80009b6:	7ea1      	ldrb	r1, [r4, #26]
 80009b8:	68e0      	ldr	r0, [r4, #12]
 80009ba:	4303      	orrs	r3, r0
 80009bc:	0348      	lsls	r0, r1, #13
 80009be:	4303      	orrs	r3, r0
 80009c0:	1d60      	adds	r0, r4, #5
 80009c2:	7fc0      	ldrb	r0, [r0, #31]
 80009c4:	0040      	lsls	r0, r0, #1
 80009c6:	4303      	orrs	r3, r0
 80009c8:	6aa0      	ldr	r0, [r4, #40]	@ 0x28
 80009ca:	3801      	subs	r0, #1
 80009cc:	1e45      	subs	r5, r0, #1
 80009ce:	41a8      	sbcs	r0, r5
 80009d0:	0300      	lsls	r0, r0, #12
 80009d2:	4303      	orrs	r3, r0
 80009d4:	6920      	ldr	r0, [r4, #16]
 80009d6:	3802      	subs	r0, #2
 80009d8:	4245      	negs	r5, r0
 80009da:	4168      	adcs	r0, r5
 80009dc:	0080      	lsls	r0, r0, #2
 80009de:	4303      	orrs	r3, r0
 80009e0:	7ee0      	ldrb	r0, [r4, #27]
 80009e2:	2801      	cmp	r0, #1
 80009e4:	d104      	bne.n	80009f0 <HAL_ADC_Init+0xb4>
 80009e6:	2900      	cmp	r1, #0
 80009e8:	d12b      	bne.n	8000a42 <HAL_ADC_Init+0x106>
 80009ea:	2180      	movs	r1, #128	@ 0x80
 80009ec:	0249      	lsls	r1, r1, #9
 80009ee:	430b      	orrs	r3, r1
 80009f0:	20c2      	movs	r0, #194	@ 0xc2
 80009f2:	69e1      	ldr	r1, [r4, #28]
 80009f4:	30ff      	adds	r0, #255	@ 0xff
 80009f6:	4281      	cmp	r1, r0
 80009f8:	d002      	beq.n	8000a00 <HAL_ADC_Init+0xc4>
 80009fa:	6a20      	ldr	r0, [r4, #32]
 80009fc:	4301      	orrs	r1, r0
 80009fe:	430b      	orrs	r3, r1
 8000a00:	2080      	movs	r0, #128	@ 0x80
 8000a02:	68d1      	ldr	r1, [r2, #12]
 8000a04:	0540      	lsls	r0, r0, #21
 8000a06:	4319      	orrs	r1, r3
 8000a08:	60d1      	str	r1, [r2, #12]
 8000a0a:	6ae1      	ldr	r1, [r4, #44]	@ 0x2c
 8000a0c:	4281      	cmp	r1, r0
 8000a0e:	d002      	beq.n	8000a16 <HAL_ADC_Init+0xda>
 8000a10:	1e48      	subs	r0, r1, #1
 8000a12:	2806      	cmp	r0, #6
 8000a14:	d807      	bhi.n	8000a26 <HAL_ADC_Init+0xea>
 8000a16:	2507      	movs	r5, #7
 8000a18:	6950      	ldr	r0, [r2, #20]
 8000a1a:	4029      	ands	r1, r5
 8000a1c:	43a8      	bics	r0, r5
 8000a1e:	6150      	str	r0, [r2, #20]
 8000a20:	6950      	ldr	r0, [r2, #20]
 8000a22:	4301      	orrs	r1, r0
 8000a24:	6151      	str	r1, [r2, #20]
 8000a26:	68d2      	ldr	r2, [r2, #12]
 8000a28:	4914      	ldr	r1, [pc, #80]	@ (8000a7c <HAL_ADC_Init+0x140>)
 8000a2a:	400a      	ands	r2, r1
 8000a2c:	429a      	cmp	r2, r3
 8000a2e:	d110      	bne.n	8000a52 <HAL_ADC_Init+0x116>
 8000a30:	2000      	movs	r0, #0
 8000a32:	2303      	movs	r3, #3
 8000a34:	63e0      	str	r0, [r4, #60]	@ 0x3c
 8000a36:	6ba2      	ldr	r2, [r4, #56]	@ 0x38
 8000a38:	439a      	bics	r2, r3
 8000a3a:	3b02      	subs	r3, #2
 8000a3c:	4313      	orrs	r3, r2
 8000a3e:	63a3      	str	r3, [r4, #56]	@ 0x38
 8000a40:	bd70      	pop	{r4, r5, r6, pc}
 8000a42:	2120      	movs	r1, #32
 8000a44:	6ba5      	ldr	r5, [r4, #56]	@ 0x38
 8000a46:	4329      	orrs	r1, r5
 8000a48:	63a1      	str	r1, [r4, #56]	@ 0x38
 8000a4a:	6be1      	ldr	r1, [r4, #60]	@ 0x3c
 8000a4c:	4308      	orrs	r0, r1
 8000a4e:	63e0      	str	r0, [r4, #60]	@ 0x3c
 8000a50:	e7ce      	b.n	80009f0 <HAL_ADC_Init+0xb4>
 8000a52:	2312      	movs	r3, #18
 8000a54:	6ba2      	ldr	r2, [r4, #56]	@ 0x38
 8000a56:	439a      	bics	r2, r3
 8000a58:	3b02      	subs	r3, #2
 8000a5a:	4313      	orrs	r3, r2
 8000a5c:	63a3      	str	r3, [r4, #56]	@ 0x38
 8000a5e:	2301      	movs	r3, #1
 8000a60:	6be2      	ldr	r2, [r4, #60]	@ 0x3c
 8000a62:	4313      	orrs	r3, r2
 8000a64:	63e3      	str	r3, [r4, #60]	@ 0x3c
 8000a66:	2001      	movs	r0, #1
 8000a68:	e7ea      	b.n	8000a40 <HAL_ADC_Init+0x104>
 8000a6a:	2310      	movs	r3, #16
 8000a6c:	6ba2      	ldr	r2, [r4, #56]	@ 0x38
 8000a6e:	4313      	orrs	r3, r2
 8000a70:	63a3      	str	r3, [r4, #56]	@ 0x38
 8000a72:	e7f8      	b.n	8000a66 <HAL_ADC_Init+0x12a>
 8000a74:	fffffefd 	.word	0xfffffefd
 8000a78:	fffe0219 	.word	0xfffe0219
 8000a7c:	833fffe7 	.word	0x833fffe7

08000a80 <HAL_ADC_Start_DMA>:
 8000a80:	b5f7      	push	{r0, r1, r2, r4, r5, r6, r7, lr}
 8000a82:	6803      	ldr	r3, [r0, #0]
 8000a84:	0004      	movs	r4, r0
 8000a86:	689b      	ldr	r3, [r3, #8]
 8000a88:	000e      	movs	r6, r1
 8000a8a:	2002      	movs	r0, #2
 8000a8c:	9201      	str	r2, [sp, #4]
 8000a8e:	075b      	lsls	r3, r3, #29
 8000a90:	d430      	bmi.n	8000af4 <HAL_ADC_Start_DMA+0x74>
 8000a92:	0027      	movs	r7, r4
 8000a94:	3734      	adds	r7, #52	@ 0x34
 8000a96:	783b      	ldrb	r3, [r7, #0]
 8000a98:	2b01      	cmp	r3, #1
 8000a9a:	d02b      	beq.n	8000af4 <HAL_ADC_Start_DMA+0x74>
 8000a9c:	2301      	movs	r3, #1
 8000a9e:	703b      	strb	r3, [r7, #0]
 8000aa0:	7e63      	ldrb	r3, [r4, #25]
 8000aa2:	2b01      	cmp	r3, #1
 8000aa4:	d127      	bne.n	8000af6 <HAL_ADC_Start_DMA+0x76>
 8000aa6:	6ba2      	ldr	r2, [r4, #56]	@ 0x38
 8000aa8:	4b16      	ldr	r3, [pc, #88]	@ (8000b04 <HAL_ADC_Start_DMA+0x84>)
 8000aaa:	2500      	movs	r5, #0
 8000aac:	401a      	ands	r2, r3
 8000aae:	2380      	movs	r3, #128	@ 0x80
 8000ab0:	005b      	lsls	r3, r3, #1
 8000ab2:	4313      	orrs	r3, r2
 8000ab4:	63a3      	str	r3, [r4, #56]	@ 0x38
 8000ab6:	63e5      	str	r5, [r4, #60]	@ 0x3c
 8000ab8:	703d      	strb	r5, [r7, #0]
 8000aba:	6b20      	ldr	r0, [r4, #48]	@ 0x30
 8000abc:	4b12      	ldr	r3, [pc, #72]	@ (8000b08 <HAL_ADC_Start_DMA+0x88>)
 8000abe:	6821      	ldr	r1, [r4, #0]
 8000ac0:	6283      	str	r3, [r0, #40]	@ 0x28
 8000ac2:	4b12      	ldr	r3, [pc, #72]	@ (8000b0c <HAL_ADC_Start_DMA+0x8c>)
 8000ac4:	62c3      	str	r3, [r0, #44]	@ 0x2c
 8000ac6:	4b12      	ldr	r3, [pc, #72]	@ (8000b10 <HAL_ADC_Start_DMA+0x90>)
 8000ac8:	6303      	str	r3, [r0, #48]	@ 0x30
 8000aca:	231c      	movs	r3, #28
 8000acc:	600b      	str	r3, [r1, #0]
 8000ace:	684a      	ldr	r2, [r1, #4]
 8000ad0:	3b0c      	subs	r3, #12
 8000ad2:	4313      	orrs	r3, r2
 8000ad4:	604b      	str	r3, [r1, #4]
 8000ad6:	2301      	movs	r3, #1
 8000ad8:	68ca      	ldr	r2, [r1, #12]
 8000ada:	4313      	orrs	r3, r2
 8000adc:	60cb      	str	r3, [r1, #12]
 8000ade:	0032      	movs	r2, r6
 8000ae0:	9b01      	ldr	r3, [sp, #4]
 8000ae2:	3140      	adds	r1, #64	@ 0x40
 8000ae4:	f000 f9c0 	bl	8000e68 <HAL_DMA_Start_IT>
 8000ae8:	2304      	movs	r3, #4
 8000aea:	0028      	movs	r0, r5
 8000aec:	6822      	ldr	r2, [r4, #0]
 8000aee:	6891      	ldr	r1, [r2, #8]
 8000af0:	430b      	orrs	r3, r1
 8000af2:	6093      	str	r3, [r2, #8]
 8000af4:	bdfe      	pop	{r1, r2, r3, r4, r5, r6, r7, pc}
 8000af6:	0020      	movs	r0, r4
 8000af8:	f7ff fed0 	bl	800089c <ADC_Enable.constprop.0>
 8000afc:	2800      	cmp	r0, #0
 8000afe:	d0d2      	beq.n	8000aa6 <HAL_ADC_Start_DMA+0x26>
 8000b00:	e7f8      	b.n	8000af4 <HAL_ADC_Start_DMA+0x74>
 8000b02:	46c0      	nop			@ (mov r8, r8)
 8000b04:	fffff0fe 	.word	0xfffff0fe
 8000b08:	08000b15 	.word	0x08000b15
 8000b0c:	08000b87 	.word	0x08000b87
 8000b10:	08000b93 	.word	0x08000b93

08000b14 <ADC_DMAConvCplt>:
 8000b14:	2250      	movs	r2, #80	@ 0x50
 8000b16:	6a43      	ldr	r3, [r0, #36]	@ 0x24
 8000b18:	b510      	push	{r4, lr}
 8000b1a:	6b99      	ldr	r1, [r3, #56]	@ 0x38
 8000b1c:	4211      	tst	r1, r2
 8000b1e:	d12b      	bne.n	8000b78 <ADC_DMAConvCplt+0x64>
 8000b20:	6b99      	ldr	r1, [r3, #56]	@ 0x38
 8000b22:	32b1      	adds	r2, #177	@ 0xb1
 8000b24:	32ff      	adds	r2, #255	@ 0xff
 8000b26:	430a      	orrs	r2, r1
 8000b28:	21c0      	movs	r1, #192	@ 0xc0
 8000b2a:	639a      	str	r2, [r3, #56]	@ 0x38
 8000b2c:	681a      	ldr	r2, [r3, #0]
 8000b2e:	0109      	lsls	r1, r1, #4
 8000b30:	68d0      	ldr	r0, [r2, #12]
 8000b32:	4208      	tst	r0, r1
 8000b34:	d113      	bne.n	8000b5e <ADC_DMAConvCplt+0x4a>
 8000b36:	7e99      	ldrb	r1, [r3, #26]
 8000b38:	2900      	cmp	r1, #0
 8000b3a:	d110      	bne.n	8000b5e <ADC_DMAConvCplt+0x4a>
 8000b3c:	6811      	ldr	r1, [r2, #0]
 8000b3e:	0709      	lsls	r1, r1, #28
 8000b40:	d50d      	bpl.n	8000b5e <ADC_DMAConvCplt+0x4a>
 8000b42:	6891      	ldr	r1, [r2, #8]
 8000b44:	0749      	lsls	r1, r1, #29
 8000b46:	d40e      	bmi.n	8000b66 <ADC_DMAConvCplt+0x52>
 8000b48:	200c      	movs	r0, #12
 8000b4a:	6851      	ldr	r1, [r2, #4]
 8000b4c:	4381      	bics	r1, r0
 8000b4e:	6051      	str	r1, [r2, #4]
 8000b50:	6b99      	ldr	r1, [r3, #56]	@ 0x38
 8000b52:	4a0b      	ldr	r2, [pc, #44]	@ (8000b80 <ADC_DMAConvCplt+0x6c>)
 8000b54:	4011      	ands	r1, r2
 8000b56:	3204      	adds	r2, #4
 8000b58:	32ff      	adds	r2, #255	@ 0xff
 8000b5a:	430a      	orrs	r2, r1
 8000b5c:	639a      	str	r2, [r3, #56]	@ 0x38
 8000b5e:	0018      	movs	r0, r3
 8000b60:	f7ff fcc2 	bl	80004e8 <HAL_ADC_ConvCpltCallback>
 8000b64:	bd10      	pop	{r4, pc}
 8000b66:	2220      	movs	r2, #32
 8000b68:	6b99      	ldr	r1, [r3, #56]	@ 0x38
 8000b6a:	430a      	orrs	r2, r1
 8000b6c:	639a      	str	r2, [r3, #56]	@ 0x38
 8000b6e:	2201      	movs	r2, #1
 8000b70:	6bd9      	ldr	r1, [r3, #60]	@ 0x3c
 8000b72:	430a      	orrs	r2, r1
 8000b74:	63da      	str	r2, [r3, #60]	@ 0x3c
 8000b76:	e7f2      	b.n	8000b5e <ADC_DMAConvCplt+0x4a>
 8000b78:	6b1b      	ldr	r3, [r3, #48]	@ 0x30
 8000b7a:	6b1b      	ldr	r3, [r3, #48]	@ 0x30
 8000b7c:	4798      	blx	r3
 8000b7e:	e7f1      	b.n	8000b64 <ADC_DMAConvCplt+0x50>
 8000b80:	fffffefe 	.word	0xfffffefe

08000b84 <HAL_ADC_ConvHalfCpltCallback>:
 8000b84:	4770      	bx	lr

08000b86 <ADC_DMAHalfConvCplt>:
 8000b86:	b510      	push	{r4, lr}
 8000b88:	6a40      	ldr	r0, [r0, #36]	@ 0x24
 8000b8a:	f7ff fffb 	bl	8000b84 <HAL_ADC_ConvHalfCpltCallback>
 8000b8e:	bd10      	pop	{r4, pc}

08000b90 <HAL_ADC_ErrorCallback>:
 8000b90:	4770      	bx	lr

08000b92 <ADC_DMAError>:
 8000b92:	2340      	movs	r3, #64	@ 0x40
 8000b94:	6a40      	ldr	r0, [r0, #36]	@ 0x24
 8000b96:	b510      	push	{r4, lr}
 8000b98:	6b82      	ldr	r2, [r0, #56]	@ 0x38
 8000b9a:	4313      	orrs	r3, r2
 8000b9c:	6383      	str	r3, [r0, #56]	@ 0x38
 8000b9e:	2304      	movs	r3, #4
 8000ba0:	6bc2      	ldr	r2, [r0, #60]	@ 0x3c
 8000ba2:	4313      	orrs	r3, r2
 8000ba4:	63c3      	str	r3, [r0, #60]	@ 0x3c
 8000ba6:	f7ff fff3 	bl	8000b90 <HAL_ADC_ErrorCallback>
 8000baa:	bd10      	pop	{r4, pc}

08000bac <HAL_ADC_ConfigChannel>:
 8000bac:	b5f7      	push	{r0, r1, r2, r4, r5, r6, r7, lr}
 8000bae:	2200      	movs	r2, #0
 8000bb0:	0004      	movs	r4, r0
 8000bb2:	9201      	str	r2, [sp, #4]
 8000bb4:	3434      	adds	r4, #52	@ 0x34
 8000bb6:	7822      	ldrb	r2, [r4, #0]
 8000bb8:	0003      	movs	r3, r0
 8000bba:	6ac5      	ldr	r5, [r0, #44]	@ 0x2c
 8000bbc:	2002      	movs	r0, #2
 8000bbe:	2a01      	cmp	r2, #1
 8000bc0:	d02a      	beq.n	8000c18 <HAL_ADC_ConfigChannel+0x6c>
 8000bc2:	3801      	subs	r0, #1
 8000bc4:	7020      	strb	r0, [r4, #0]
 8000bc6:	681a      	ldr	r2, [r3, #0]
 8000bc8:	6896      	ldr	r6, [r2, #8]
 8000bca:	0776      	lsls	r6, r6, #29
 8000bcc:	d45e      	bmi.n	8000c8c <HAL_ADC_ConfigChannel+0xe0>
 8000bce:	680b      	ldr	r3, [r1, #0]
 8000bd0:	684f      	ldr	r7, [r1, #4]
 8000bd2:	001e      	movs	r6, r3
 8000bd4:	46bc      	mov	ip, r7
 8000bd6:	4f30      	ldr	r7, [pc, #192]	@ (8000c98 <HAL_ADC_ConfigChannel+0xec>)
 8000bd8:	4098      	lsls	r0, r3
 8000bda:	3e10      	subs	r6, #16
 8000bdc:	45bc      	cmp	ip, r7
 8000bde:	d03f      	beq.n	8000c60 <HAL_ADC_ConfigChannel+0xb4>
 8000be0:	6a97      	ldr	r7, [r2, #40]	@ 0x28
 8000be2:	4338      	orrs	r0, r7
 8000be4:	6290      	str	r0, [r2, #40]	@ 0x28
 8000be6:	2080      	movs	r0, #128	@ 0x80
 8000be8:	0540      	lsls	r0, r0, #21
 8000bea:	4285      	cmp	r5, r0
 8000bec:	d00f      	beq.n	8000c0e <HAL_ADC_ConfigChannel+0x62>
 8000bee:	3d01      	subs	r5, #1
 8000bf0:	2d06      	cmp	r5, #6
 8000bf2:	d90c      	bls.n	8000c0e <HAL_ADC_ConfigChannel+0x62>
 8000bf4:	2007      	movs	r0, #7
 8000bf6:	6955      	ldr	r5, [r2, #20]
 8000bf8:	6889      	ldr	r1, [r1, #8]
 8000bfa:	4005      	ands	r5, r0
 8000bfc:	42a9      	cmp	r1, r5
 8000bfe:	d006      	beq.n	8000c0e <HAL_ADC_ConfigChannel+0x62>
 8000c00:	6955      	ldr	r5, [r2, #20]
 8000c02:	4001      	ands	r1, r0
 8000c04:	4385      	bics	r5, r0
 8000c06:	6155      	str	r5, [r2, #20]
 8000c08:	6955      	ldr	r5, [r2, #20]
 8000c0a:	4329      	orrs	r1, r5
 8000c0c:	6151      	str	r1, [r2, #20]
 8000c0e:	2e02      	cmp	r6, #2
 8000c10:	d903      	bls.n	8000c1a <HAL_ADC_ConfigChannel+0x6e>
 8000c12:	2000      	movs	r0, #0
 8000c14:	2300      	movs	r3, #0
 8000c16:	7023      	strb	r3, [r4, #0]
 8000c18:	bdfe      	pop	{r1, r2, r3, r4, r5, r6, r7, pc}
 8000c1a:	4820      	ldr	r0, [pc, #128]	@ (8000c9c <HAL_ADC_ConfigChannel+0xf0>)
 8000c1c:	6801      	ldr	r1, [r0, #0]
 8000c1e:	2b10      	cmp	r3, #16
 8000c20:	d01b      	beq.n	8000c5a <HAL_ADC_ConfigChannel+0xae>
 8000c22:	001a      	movs	r2, r3
 8000c24:	3a11      	subs	r2, #17
 8000c26:	4255      	negs	r5, r2
 8000c28:	416a      	adcs	r2, r5
 8000c2a:	4d1d      	ldr	r5, [pc, #116]	@ (8000ca0 <HAL_ADC_ConfigChannel+0xf4>)
 8000c2c:	4252      	negs	r2, r2
 8000c2e:	402a      	ands	r2, r5
 8000c30:	2580      	movs	r5, #128	@ 0x80
 8000c32:	046d      	lsls	r5, r5, #17
 8000c34:	1952      	adds	r2, r2, r5
 8000c36:	430a      	orrs	r2, r1
 8000c38:	6002      	str	r2, [r0, #0]
 8000c3a:	2b10      	cmp	r3, #16
 8000c3c:	d1e9      	bne.n	8000c12 <HAL_ADC_ConfigChannel+0x66>
 8000c3e:	4b19      	ldr	r3, [pc, #100]	@ (8000ca4 <HAL_ADC_ConfigChannel+0xf8>)
 8000c40:	4919      	ldr	r1, [pc, #100]	@ (8000ca8 <HAL_ADC_ConfigChannel+0xfc>)
 8000c42:	6818      	ldr	r0, [r3, #0]
 8000c44:	f7ff fa7c 	bl	8000140 <__udivsi3>
 8000c48:	230a      	movs	r3, #10
 8000c4a:	4343      	muls	r3, r0
 8000c4c:	9301      	str	r3, [sp, #4]
 8000c4e:	9b01      	ldr	r3, [sp, #4]
 8000c50:	2b00      	cmp	r3, #0
 8000c52:	d0de      	beq.n	8000c12 <HAL_ADC_ConfigChannel+0x66>
 8000c54:	9b01      	ldr	r3, [sp, #4]
 8000c56:	3b01      	subs	r3, #1
 8000c58:	e7f8      	b.n	8000c4c <HAL_ADC_ConfigChannel+0xa0>
 8000c5a:	2280      	movs	r2, #128	@ 0x80
 8000c5c:	0412      	lsls	r2, r2, #16
 8000c5e:	e7ea      	b.n	8000c36 <HAL_ADC_ConfigChannel+0x8a>
 8000c60:	6a91      	ldr	r1, [r2, #40]	@ 0x28
 8000c62:	4381      	bics	r1, r0
 8000c64:	6291      	str	r1, [r2, #40]	@ 0x28
 8000c66:	2e02      	cmp	r6, #2
 8000c68:	d8d3      	bhi.n	8000c12 <HAL_ADC_ConfigChannel+0x66>
 8000c6a:	4a0c      	ldr	r2, [pc, #48]	@ (8000c9c <HAL_ADC_ConfigChannel+0xf0>)
 8000c6c:	6811      	ldr	r1, [r2, #0]
 8000c6e:	2b10      	cmp	r3, #16
 8000c70:	d00a      	beq.n	8000c88 <HAL_ADC_ConfigChannel+0xdc>
 8000c72:	3b11      	subs	r3, #17
 8000c74:	1e58      	subs	r0, r3, #1
 8000c76:	4183      	sbcs	r3, r0
 8000c78:	4809      	ldr	r0, [pc, #36]	@ (8000ca0 <HAL_ADC_ConfigChannel+0xf4>)
 8000c7a:	425b      	negs	r3, r3
 8000c7c:	4003      	ands	r3, r0
 8000c7e:	480b      	ldr	r0, [pc, #44]	@ (8000cac <HAL_ADC_ConfigChannel+0x100>)
 8000c80:	181b      	adds	r3, r3, r0
 8000c82:	400b      	ands	r3, r1
 8000c84:	6013      	str	r3, [r2, #0]
 8000c86:	e7c4      	b.n	8000c12 <HAL_ADC_ConfigChannel+0x66>
 8000c88:	4b09      	ldr	r3, [pc, #36]	@ (8000cb0 <HAL_ADC_ConfigChannel+0x104>)
 8000c8a:	e7fa      	b.n	8000c82 <HAL_ADC_ConfigChannel+0xd6>
 8000c8c:	2220      	movs	r2, #32
 8000c8e:	6b99      	ldr	r1, [r3, #56]	@ 0x38
 8000c90:	430a      	orrs	r2, r1
 8000c92:	639a      	str	r2, [r3, #56]	@ 0x38
 8000c94:	e7be      	b.n	8000c14 <HAL_ADC_ConfigChannel+0x68>
 8000c96:	46c0      	nop			@ (mov r8, r8)
 8000c98:	00001001 	.word	0x00001001
 8000c9c:	40012708 	.word	0x40012708
 8000ca0:	ff400000 	.word	0xff400000
 8000ca4:	20000000 	.word	0x20000000
 8000ca8:	000f4240 	.word	0x000f4240
 8000cac:	ffbfffff 	.word	0xffbfffff
 8000cb0:	ff7fffff 	.word	0xff7fffff

08000cb4 <HAL_ADCEx_Calibration_Start>:
 8000cb4:	b5f8      	push	{r3, r4, r5, r6, r7, lr}
 8000cb6:	0006      	movs	r6, r0
 8000cb8:	3634      	adds	r6, #52	@ 0x34
 8000cba:	7833      	ldrb	r3, [r6, #0]
 8000cbc:	0004      	movs	r4, r0
 8000cbe:	2002      	movs	r0, #2
 8000cc0:	2b01      	cmp	r3, #1
 8000cc2:	d045      	beq.n	8000d50 <HAL_ADCEx_Calibration_Start+0x9c>
 8000cc4:	2301      	movs	r3, #1
 8000cc6:	2103      	movs	r1, #3
 8000cc8:	7033      	strb	r3, [r6, #0]
 8000cca:	6823      	ldr	r3, [r4, #0]
 8000ccc:	689a      	ldr	r2, [r3, #8]
 8000cce:	400a      	ands	r2, r1
 8000cd0:	2a01      	cmp	r2, #1
 8000cd2:	d105      	bne.n	8000ce0 <HAL_ADCEx_Calibration_Start+0x2c>
 8000cd4:	6819      	ldr	r1, [r3, #0]
 8000cd6:	4211      	tst	r1, r2
 8000cd8:	d13b      	bne.n	8000d52 <HAL_ADCEx_Calibration_Start+0x9e>
 8000cda:	68da      	ldr	r2, [r3, #12]
 8000cdc:	0412      	lsls	r2, r2, #16
 8000cde:	d438      	bmi.n	8000d52 <HAL_ADCEx_Calibration_Start+0x9e>
 8000ce0:	6ba1      	ldr	r1, [r4, #56]	@ 0x38
 8000ce2:	4a1f      	ldr	r2, [pc, #124]	@ (8000d60 <HAL_ADCEx_Calibration_Start+0xac>)
 8000ce4:	4011      	ands	r1, r2
 8000ce6:	3206      	adds	r2, #6
 8000ce8:	32ff      	adds	r2, #255	@ 0xff
 8000cea:	430a      	orrs	r2, r1
 8000cec:	2103      	movs	r1, #3
 8000cee:	63a2      	str	r2, [r4, #56]	@ 0x38
 8000cf0:	68dd      	ldr	r5, [r3, #12]
 8000cf2:	68da      	ldr	r2, [r3, #12]
 8000cf4:	438a      	bics	r2, r1
 8000cf6:	60da      	str	r2, [r3, #12]
 8000cf8:	2280      	movs	r2, #128	@ 0x80
 8000cfa:	6899      	ldr	r1, [r3, #8]
 8000cfc:	0612      	lsls	r2, r2, #24
 8000cfe:	430a      	orrs	r2, r1
 8000d00:	609a      	str	r2, [r3, #8]
 8000d02:	f7ff fdb3 	bl	800086c <HAL_GetTick>
 8000d06:	0007      	movs	r7, r0
 8000d08:	6823      	ldr	r3, [r4, #0]
 8000d0a:	689a      	ldr	r2, [r3, #8]
 8000d0c:	2a00      	cmp	r2, #0
 8000d0e:	db0d      	blt.n	8000d2c <HAL_ADCEx_Calibration_Start+0x78>
 8000d10:	2103      	movs	r1, #3
 8000d12:	68da      	ldr	r2, [r3, #12]
 8000d14:	400d      	ands	r5, r1
 8000d16:	4315      	orrs	r5, r2
 8000d18:	60dd      	str	r5, [r3, #12]
 8000d1a:	2301      	movs	r3, #1
 8000d1c:	2000      	movs	r0, #0
 8000d1e:	6ba2      	ldr	r2, [r4, #56]	@ 0x38
 8000d20:	438a      	bics	r2, r1
 8000d22:	4313      	orrs	r3, r2
 8000d24:	63a3      	str	r3, [r4, #56]	@ 0x38
 8000d26:	2300      	movs	r3, #0
 8000d28:	7033      	strb	r3, [r6, #0]
 8000d2a:	e011      	b.n	8000d50 <HAL_ADCEx_Calibration_Start+0x9c>
 8000d2c:	f7ff fd9e 	bl	800086c <HAL_GetTick>
 8000d30:	1bc0      	subs	r0, r0, r7
 8000d32:	2802      	cmp	r0, #2
 8000d34:	d9e8      	bls.n	8000d08 <HAL_ADCEx_Calibration_Start+0x54>
 8000d36:	6823      	ldr	r3, [r4, #0]
 8000d38:	689b      	ldr	r3, [r3, #8]
 8000d3a:	2b00      	cmp	r3, #0
 8000d3c:	dae4      	bge.n	8000d08 <HAL_ADCEx_Calibration_Start+0x54>
 8000d3e:	2312      	movs	r3, #18
 8000d40:	6ba2      	ldr	r2, [r4, #56]	@ 0x38
 8000d42:	2001      	movs	r0, #1
 8000d44:	439a      	bics	r2, r3
 8000d46:	3b02      	subs	r3, #2
 8000d48:	4313      	orrs	r3, r2
 8000d4a:	63a3      	str	r3, [r4, #56]	@ 0x38
 8000d4c:	2300      	movs	r3, #0
 8000d4e:	7033      	strb	r3, [r6, #0]
 8000d50:	bdf8      	pop	{r3, r4, r5, r6, r7, pc}
 8000d52:	2320      	movs	r3, #32
 8000d54:	6ba2      	ldr	r2, [r4, #56]	@ 0x38
 8000d56:	2001      	movs	r0, #1
 8000d58:	4313      	orrs	r3, r2
 8000d5a:	63a3      	str	r3, [r4, #56]	@ 0x38
 8000d5c:	e7e3      	b.n	8000d26 <HAL_ADCEx_Calibration_Start+0x72>
 8000d5e:	46c0      	nop			@ (mov r8, r8)
 8000d60:	fffffefd 	.word	0xfffffefd

08000d64 <HAL_NVIC_SetPriority>:
 8000d64:	b510      	push	{r4, lr}
 8000d66:	24ff      	movs	r4, #255	@ 0xff
 8000d68:	2203      	movs	r2, #3
 8000d6a:	000b      	movs	r3, r1
 8000d6c:	0021      	movs	r1, r4
 8000d6e:	4002      	ands	r2, r0
 8000d70:	00d2      	lsls	r2, r2, #3
 8000d72:	4091      	lsls	r1, r2
 8000d74:	019b      	lsls	r3, r3, #6
 8000d76:	4023      	ands	r3, r4
 8000d78:	43c9      	mvns	r1, r1
 8000d7a:	4093      	lsls	r3, r2
 8000d7c:	2800      	cmp	r0, #0
 8000d7e:	db0a      	blt.n	8000d96 <HAL_NVIC_SetPriority+0x32>
 8000d80:	24c0      	movs	r4, #192	@ 0xc0
 8000d82:	4a0b      	ldr	r2, [pc, #44]	@ (8000db0 <HAL_NVIC_SetPriority+0x4c>)
 8000d84:	0880      	lsrs	r0, r0, #2
 8000d86:	0080      	lsls	r0, r0, #2
 8000d88:	1880      	adds	r0, r0, r2
 8000d8a:	00a4      	lsls	r4, r4, #2
 8000d8c:	5902      	ldr	r2, [r0, r4]
 8000d8e:	400a      	ands	r2, r1
 8000d90:	4313      	orrs	r3, r2
 8000d92:	5103      	str	r3, [r0, r4]
 8000d94:	bd10      	pop	{r4, pc}
 8000d96:	220f      	movs	r2, #15
 8000d98:	4010      	ands	r0, r2
 8000d9a:	3808      	subs	r0, #8
 8000d9c:	4a05      	ldr	r2, [pc, #20]	@ (8000db4 <HAL_NVIC_SetPriority+0x50>)
 8000d9e:	0880      	lsrs	r0, r0, #2
 8000da0:	0080      	lsls	r0, r0, #2
 8000da2:	1880      	adds	r0, r0, r2
 8000da4:	69c2      	ldr	r2, [r0, #28]
 8000da6:	4011      	ands	r1, r2
 8000da8:	4319      	orrs	r1, r3
 8000daa:	61c1      	str	r1, [r0, #28]
 8000dac:	e7f2      	b.n	8000d94 <HAL_NVIC_SetPriority+0x30>
 8000dae:	46c0      	nop			@ (mov r8, r8)
 8000db0:	e000e100 	.word	0xe000e100
 8000db4:	e000ed00 	.word	0xe000ed00

08000db8 <HAL_NVIC_EnableIRQ>:
 8000db8:	2800      	cmp	r0, #0
 8000dba:	db05      	blt.n	8000dc8 <HAL_NVIC_EnableIRQ+0x10>
 8000dbc:	231f      	movs	r3, #31
 8000dbe:	4018      	ands	r0, r3
 8000dc0:	3b1e      	subs	r3, #30
 8000dc2:	4083      	lsls	r3, r0
 8000dc4:	4a01      	ldr	r2, [pc, #4]	@ (8000dcc <HAL_NVIC_EnableIRQ+0x14>)
 8000dc6:	6013      	str	r3, [r2, #0]
 8000dc8:	4770      	bx	lr
 8000dca:	46c0      	nop			@ (mov r8, r8)
 8000dcc:	e000e100 	.word	0xe000e100

08000dd0 <HAL_SYSTICK_Config>:
 8000dd0:	2280      	movs	r2, #128	@ 0x80
 8000dd2:	1e43      	subs	r3, r0, #1
 8000dd4:	0452      	lsls	r2, r2, #17
 8000dd6:	2001      	movs	r0, #1
 8000dd8:	4293      	cmp	r3, r2
 8000dda:	d20d      	bcs.n	8000df8 <HAL_SYSTICK_Config+0x28>
 8000ddc:	21c0      	movs	r1, #192	@ 0xc0
 8000dde:	4a07      	ldr	r2, [pc, #28]	@ (8000dfc <HAL_SYSTICK_Config+0x2c>)
 8000de0:	4807      	ldr	r0, [pc, #28]	@ (8000e00 <HAL_SYSTICK_Config+0x30>)
 8000de2:	6053      	str	r3, [r2, #4]
 8000de4:	6a03      	ldr	r3, [r0, #32]
 8000de6:	0609      	lsls	r1, r1, #24
 8000de8:	021b      	lsls	r3, r3, #8
 8000dea:	0a1b      	lsrs	r3, r3, #8
 8000dec:	430b      	orrs	r3, r1
 8000dee:	6203      	str	r3, [r0, #32]
 8000df0:	2000      	movs	r0, #0
 8000df2:	2307      	movs	r3, #7
 8000df4:	6090      	str	r0, [r2, #8]
 8000df6:	6013      	str	r3, [r2, #0]
 8000df8:	4770      	bx	lr
 8000dfa:	46c0      	nop			@ (mov r8, r8)
 8000dfc:	e000e010 	.word	0xe000e010
 8000e00:	e000ed00 	.word	0xe000ed00

08000e04 <HAL_DMA_Init>:
 8000e04:	b570      	push	{r4, r5, r6, lr}
 8000e06:	0004      	movs	r4, r0
 8000e08:	2001      	movs	r0, #1
 8000e0a:	2c00      	cmp	r4, #0
 8000e0c:	d024      	beq.n	8000e58 <HAL_DMA_Init+0x54>
 8000e0e:	2302      	movs	r3, #2
 8000e10:	1ca5      	adds	r5, r4, #2
 8000e12:	77eb      	strb	r3, [r5, #31]
 8000e14:	6820      	ldr	r0, [r4, #0]
 8000e16:	4b11      	ldr	r3, [pc, #68]	@ (8000e5c <HAL_DMA_Init+0x58>)
 8000e18:	6802      	ldr	r2, [r0, #0]
 8000e1a:	68a1      	ldr	r1, [r4, #8]
 8000e1c:	401a      	ands	r2, r3
 8000e1e:	6863      	ldr	r3, [r4, #4]
 8000e20:	430b      	orrs	r3, r1
 8000e22:	68e1      	ldr	r1, [r4, #12]
 8000e24:	430b      	orrs	r3, r1
 8000e26:	6921      	ldr	r1, [r4, #16]
 8000e28:	430b      	orrs	r3, r1
 8000e2a:	6961      	ldr	r1, [r4, #20]
 8000e2c:	430b      	orrs	r3, r1
 8000e2e:	69a1      	ldr	r1, [r4, #24]
 8000e30:	430b      	orrs	r3, r1
 8000e32:	69e1      	ldr	r1, [r4, #28]
 8000e34:	430b      	orrs	r3, r1
 8000e36:	4313      	orrs	r3, r2
 8000e38:	6003      	str	r3, [r0, #0]
 8000e3a:	4b09      	ldr	r3, [pc, #36]	@ (8000e60 <HAL_DMA_Init+0x5c>)
 8000e3c:	2114      	movs	r1, #20
 8000e3e:	18c0      	adds	r0, r0, r3
 8000e40:	f7ff f97e 	bl	8000140 <__udivsi3>
 8000e44:	4b07      	ldr	r3, [pc, #28]	@ (8000e64 <HAL_DMA_Init+0x60>)
 8000e46:	0080      	lsls	r0, r0, #2
 8000e48:	6420      	str	r0, [r4, #64]	@ 0x40
 8000e4a:	63e3      	str	r3, [r4, #60]	@ 0x3c
 8000e4c:	2000      	movs	r0, #0
 8000e4e:	2301      	movs	r3, #1
 8000e50:	63a0      	str	r0, [r4, #56]	@ 0x38
 8000e52:	18e4      	adds	r4, r4, r3
 8000e54:	77eb      	strb	r3, [r5, #31]
 8000e56:	77e0      	strb	r0, [r4, #31]
 8000e58:	bd70      	pop	{r4, r5, r6, pc}
 8000e5a:	46c0      	nop			@ (mov r8, r8)
 8000e5c:	ffffc00f 	.word	0xffffc00f
 8000e60:	bffdfff8 	.word	0xbffdfff8
 8000e64:	40020000 	.word	0x40020000

08000e68 <HAL_DMA_Start_IT>:
 8000e68:	b5f7      	push	{r0, r1, r2, r4, r5, r6, r7, lr}
 8000e6a:	1c44      	adds	r4, r0, #1
 8000e6c:	9301      	str	r3, [sp, #4]
 8000e6e:	7fe5      	ldrb	r5, [r4, #31]
 8000e70:	2d01      	cmp	r5, #1
 8000e72:	d033      	beq.n	8000edc <HAL_DMA_Start_IT+0x74>
 8000e74:	2501      	movs	r5, #1
 8000e76:	1c87      	adds	r7, r0, #2
 8000e78:	77e5      	strb	r5, [r4, #31]
 8000e7a:	7ffd      	ldrb	r5, [r7, #31]
 8000e7c:	2600      	movs	r6, #0
 8000e7e:	46ac      	mov	ip, r5
 8000e80:	4663      	mov	r3, ip
 8000e82:	b2ed      	uxtb	r5, r5
 8000e84:	2b01      	cmp	r3, #1
 8000e86:	d128      	bne.n	8000eda <HAL_DMA_Start_IT+0x72>
 8000e88:	2402      	movs	r4, #2
 8000e8a:	77fc      	strb	r4, [r7, #31]
 8000e8c:	6804      	ldr	r4, [r0, #0]
 8000e8e:	6386      	str	r6, [r0, #56]	@ 0x38
 8000e90:	6826      	ldr	r6, [r4, #0]
 8000e92:	6c07      	ldr	r7, [r0, #64]	@ 0x40
 8000e94:	43ae      	bics	r6, r5
 8000e96:	40bd      	lsls	r5, r7
 8000e98:	6026      	str	r6, [r4, #0]
 8000e9a:	9b01      	ldr	r3, [sp, #4]
 8000e9c:	6bc6      	ldr	r6, [r0, #60]	@ 0x3c
 8000e9e:	6075      	str	r5, [r6, #4]
 8000ea0:	6063      	str	r3, [r4, #4]
 8000ea2:	6843      	ldr	r3, [r0, #4]
 8000ea4:	2b10      	cmp	r3, #16
 8000ea6:	d10e      	bne.n	8000ec6 <HAL_DMA_Start_IT+0x5e>
 8000ea8:	60a2      	str	r2, [r4, #8]
 8000eaa:	60e1      	str	r1, [r4, #12]
 8000eac:	6ac3      	ldr	r3, [r0, #44]	@ 0x2c
 8000eae:	6822      	ldr	r2, [r4, #0]
 8000eb0:	2b00      	cmp	r3, #0
 8000eb2:	d00b      	beq.n	8000ecc <HAL_DMA_Start_IT+0x64>
 8000eb4:	230e      	movs	r3, #14
 8000eb6:	4313      	orrs	r3, r2
 8000eb8:	6023      	str	r3, [r4, #0]
 8000eba:	2301      	movs	r3, #1
 8000ebc:	2000      	movs	r0, #0
 8000ebe:	6822      	ldr	r2, [r4, #0]
 8000ec0:	4313      	orrs	r3, r2
 8000ec2:	6023      	str	r3, [r4, #0]
 8000ec4:	bdfe      	pop	{r1, r2, r3, r4, r5, r6, r7, pc}
 8000ec6:	60a1      	str	r1, [r4, #8]
 8000ec8:	60e2      	str	r2, [r4, #12]
 8000eca:	e7ef      	b.n	8000eac <HAL_DMA_Start_IT+0x44>
 8000ecc:	230a      	movs	r3, #10
 8000ece:	4313      	orrs	r3, r2
 8000ed0:	2204      	movs	r2, #4
 8000ed2:	6023      	str	r3, [r4, #0]
 8000ed4:	6823      	ldr	r3, [r4, #0]
 8000ed6:	4393      	bics	r3, r2
 8000ed8:	e7ee      	b.n	8000eb8 <HAL_DMA_Start_IT+0x50>
 8000eda:	77e6      	strb	r6, [r4, #31]
 8000edc:	2002      	movs	r0, #2
 8000ede:	e7f1      	b.n	8000ec4 <HAL_DMA_Start_IT+0x5c>

08000ee0 <HAL_DMA_IRQHandler>:
 8000ee0:	b5f8      	push	{r3, r4, r5, r6, r7, lr}
 8000ee2:	2704      	movs	r7, #4
 8000ee4:	003e      	movs	r6, r7
 8000ee6:	6c01      	ldr	r1, [r0, #64]	@ 0x40
 8000ee8:	6bc2      	ldr	r2, [r0, #60]	@ 0x3c
 8000eea:	408e      	lsls	r6, r1
 8000eec:	6815      	ldr	r5, [r2, #0]
 8000eee:	6803      	ldr	r3, [r0, #0]
 8000ef0:	681c      	ldr	r4, [r3, #0]
 8000ef2:	4235      	tst	r5, r6
 8000ef4:	d00d      	beq.n	8000f12 <HAL_DMA_IRQHandler+0x32>
 8000ef6:	423c      	tst	r4, r7
 8000ef8:	d00b      	beq.n	8000f12 <HAL_DMA_IRQHandler+0x32>
 8000efa:	6819      	ldr	r1, [r3, #0]
 8000efc:	0689      	lsls	r1, r1, #26
 8000efe:	d402      	bmi.n	8000f06 <HAL_DMA_IRQHandler+0x26>
 8000f00:	6819      	ldr	r1, [r3, #0]
 8000f02:	43b9      	bics	r1, r7
 8000f04:	6019      	str	r1, [r3, #0]
 8000f06:	6ac3      	ldr	r3, [r0, #44]	@ 0x2c
 8000f08:	6056      	str	r6, [r2, #4]
 8000f0a:	2b00      	cmp	r3, #0
 8000f0c:	d019      	beq.n	8000f42 <HAL_DMA_IRQHandler+0x62>
 8000f0e:	4798      	blx	r3
 8000f10:	e017      	b.n	8000f42 <HAL_DMA_IRQHandler+0x62>
 8000f12:	2702      	movs	r7, #2
 8000f14:	003e      	movs	r6, r7
 8000f16:	408e      	lsls	r6, r1
 8000f18:	4235      	tst	r5, r6
 8000f1a:	d013      	beq.n	8000f44 <HAL_DMA_IRQHandler+0x64>
 8000f1c:	423c      	tst	r4, r7
 8000f1e:	d011      	beq.n	8000f44 <HAL_DMA_IRQHandler+0x64>
 8000f20:	6819      	ldr	r1, [r3, #0]
 8000f22:	0689      	lsls	r1, r1, #26
 8000f24:	d406      	bmi.n	8000f34 <HAL_DMA_IRQHandler+0x54>
 8000f26:	240a      	movs	r4, #10
 8000f28:	6819      	ldr	r1, [r3, #0]
 8000f2a:	43a1      	bics	r1, r4
 8000f2c:	6019      	str	r1, [r3, #0]
 8000f2e:	2101      	movs	r1, #1
 8000f30:	19c3      	adds	r3, r0, r7
 8000f32:	77d9      	strb	r1, [r3, #31]
 8000f34:	6056      	str	r6, [r2, #4]
 8000f36:	2200      	movs	r2, #0
 8000f38:	1c43      	adds	r3, r0, #1
 8000f3a:	77da      	strb	r2, [r3, #31]
 8000f3c:	6a83      	ldr	r3, [r0, #40]	@ 0x28
 8000f3e:	4293      	cmp	r3, r2
 8000f40:	d1e5      	bne.n	8000f0e <HAL_DMA_IRQHandler+0x2e>
 8000f42:	bdf8      	pop	{r3, r4, r5, r6, r7, pc}
 8000f44:	2608      	movs	r6, #8
 8000f46:	0037      	movs	r7, r6
 8000f48:	408f      	lsls	r7, r1
 8000f4a:	423d      	tst	r5, r7
 8000f4c:	d0f9      	beq.n	8000f42 <HAL_DMA_IRQHandler+0x62>
 8000f4e:	4234      	tst	r4, r6
 8000f50:	d0f7      	beq.n	8000f42 <HAL_DMA_IRQHandler+0x62>
 8000f52:	250e      	movs	r5, #14
 8000f54:	681c      	ldr	r4, [r3, #0]
 8000f56:	43ac      	bics	r4, r5
 8000f58:	601c      	str	r4, [r3, #0]
 8000f5a:	2301      	movs	r3, #1
 8000f5c:	001c      	movs	r4, r3
 8000f5e:	408c      	lsls	r4, r1
 8000f60:	6054      	str	r4, [r2, #4]
 8000f62:	1c82      	adds	r2, r0, #2
 8000f64:	6383      	str	r3, [r0, #56]	@ 0x38
 8000f66:	77d3      	strb	r3, [r2, #31]
 8000f68:	2200      	movs	r2, #0
 8000f6a:	18c3      	adds	r3, r0, r3
 8000f6c:	77da      	strb	r2, [r3, #31]
 8000f6e:	6b03      	ldr	r3, [r0, #48]	@ 0x30
 8000f70:	e7e5      	b.n	8000f3e <HAL_DMA_IRQHandler+0x5e>
	...

08000f74 <HAL_GPIO_Init>:
 8000f74:	2300      	movs	r3, #0
 8000f76:	b5f0      	push	{r4, r5, r6, r7, lr}
 8000f78:	b087      	sub	sp, #28
 8000f7a:	680a      	ldr	r2, [r1, #0]
 8000f7c:	0014      	movs	r4, r2
 8000f7e:	40dc      	lsrs	r4, r3
 8000f80:	d101      	bne.n	8000f86 <HAL_GPIO_Init+0x12>
 8000f82:	b007      	add	sp, #28
 8000f84:	bdf0      	pop	{r4, r5, r6, r7, pc}
 8000f86:	2501      	movs	r5, #1
 8000f88:	0014      	movs	r4, r2
 8000f8a:	409d      	lsls	r5, r3
 8000f8c:	402c      	ands	r4, r5
 8000f8e:	9400      	str	r4, [sp, #0]
 8000f90:	422a      	tst	r2, r5
 8000f92:	d100      	bne.n	8000f96 <HAL_GPIO_Init+0x22>
 8000f94:	e094      	b.n	80010c0 <HAL_GPIO_Init+0x14c>
 8000f96:	684a      	ldr	r2, [r1, #4]
 8000f98:	005f      	lsls	r7, r3, #1
 8000f9a:	4694      	mov	ip, r2
 8000f9c:	2203      	movs	r2, #3
 8000f9e:	4664      	mov	r4, ip
 8000fa0:	4022      	ands	r2, r4
 8000fa2:	2403      	movs	r4, #3
 8000fa4:	40bc      	lsls	r4, r7
 8000fa6:	43e4      	mvns	r4, r4
 8000fa8:	9401      	str	r4, [sp, #4]
 8000faa:	1e54      	subs	r4, r2, #1
 8000fac:	2c01      	cmp	r4, #1
 8000fae:	d82e      	bhi.n	800100e <HAL_GPIO_Init+0x9a>
 8000fb0:	6886      	ldr	r6, [r0, #8]
 8000fb2:	9c01      	ldr	r4, [sp, #4]
 8000fb4:	4026      	ands	r6, r4
 8000fb6:	68cc      	ldr	r4, [r1, #12]
 8000fb8:	40bc      	lsls	r4, r7
 8000fba:	4334      	orrs	r4, r6
 8000fbc:	6084      	str	r4, [r0, #8]
 8000fbe:	6844      	ldr	r4, [r0, #4]
 8000fc0:	2601      	movs	r6, #1
 8000fc2:	43ac      	bics	r4, r5
 8000fc4:	0025      	movs	r5, r4
 8000fc6:	4664      	mov	r4, ip
 8000fc8:	0924      	lsrs	r4, r4, #4
 8000fca:	4034      	ands	r4, r6
 8000fcc:	409c      	lsls	r4, r3
 8000fce:	432c      	orrs	r4, r5
 8000fd0:	6044      	str	r4, [r0, #4]
 8000fd2:	68c5      	ldr	r5, [r0, #12]
 8000fd4:	9c01      	ldr	r4, [sp, #4]
 8000fd6:	4025      	ands	r5, r4
 8000fd8:	688c      	ldr	r4, [r1, #8]
 8000fda:	40bc      	lsls	r4, r7
 8000fdc:	432c      	orrs	r4, r5
 8000fde:	60c4      	str	r4, [r0, #12]
 8000fe0:	2a02      	cmp	r2, #2
 8000fe2:	d116      	bne.n	8001012 <HAL_GPIO_Init+0x9e>
 8000fe4:	2507      	movs	r5, #7
 8000fe6:	260f      	movs	r6, #15
 8000fe8:	401d      	ands	r5, r3
 8000fea:	00ad      	lsls	r5, r5, #2
 8000fec:	40ae      	lsls	r6, r5
 8000fee:	08dc      	lsrs	r4, r3, #3
 8000ff0:	00a4      	lsls	r4, r4, #2
 8000ff2:	1904      	adds	r4, r0, r4
 8000ff4:	9402      	str	r4, [sp, #8]
 8000ff6:	6a24      	ldr	r4, [r4, #32]
 8000ff8:	9603      	str	r6, [sp, #12]
 8000ffa:	0026      	movs	r6, r4
 8000ffc:	9c03      	ldr	r4, [sp, #12]
 8000ffe:	43a6      	bics	r6, r4
 8001000:	0034      	movs	r4, r6
 8001002:	690e      	ldr	r6, [r1, #16]
 8001004:	40ae      	lsls	r6, r5
 8001006:	4326      	orrs	r6, r4
 8001008:	9c02      	ldr	r4, [sp, #8]
 800100a:	6226      	str	r6, [r4, #32]
 800100c:	e001      	b.n	8001012 <HAL_GPIO_Init+0x9e>
 800100e:	2a03      	cmp	r2, #3
 8001010:	d1df      	bne.n	8000fd2 <HAL_GPIO_Init+0x5e>
 8001012:	40ba      	lsls	r2, r7
 8001014:	6804      	ldr	r4, [r0, #0]
 8001016:	9d01      	ldr	r5, [sp, #4]
 8001018:	4025      	ands	r5, r4
 800101a:	432a      	orrs	r2, r5
 800101c:	24c0      	movs	r4, #192	@ 0xc0
 800101e:	6002      	str	r2, [r0, #0]
 8001020:	4662      	mov	r2, ip
 8001022:	02a4      	lsls	r4, r4, #10
 8001024:	4222      	tst	r2, r4
 8001026:	d04b      	beq.n	80010c0 <HAL_GPIO_Init+0x14c>
 8001028:	2501      	movs	r5, #1
 800102a:	4a26      	ldr	r2, [pc, #152]	@ (80010c4 <HAL_GPIO_Init+0x150>)
 800102c:	2790      	movs	r7, #144	@ 0x90
 800102e:	6994      	ldr	r4, [r2, #24]
 8001030:	05ff      	lsls	r7, r7, #23
 8001032:	432c      	orrs	r4, r5
 8001034:	6194      	str	r4, [r2, #24]
 8001036:	6992      	ldr	r2, [r2, #24]
 8001038:	089c      	lsrs	r4, r3, #2
 800103a:	402a      	ands	r2, r5
 800103c:	9205      	str	r2, [sp, #20]
 800103e:	9a05      	ldr	r2, [sp, #20]
 8001040:	4a21      	ldr	r2, [pc, #132]	@ (80010c8 <HAL_GPIO_Init+0x154>)
 8001042:	00a4      	lsls	r4, r4, #2
 8001044:	18a4      	adds	r4, r4, r2
 8001046:	220f      	movs	r2, #15
 8001048:	3502      	adds	r5, #2
 800104a:	401d      	ands	r5, r3
 800104c:	00ad      	lsls	r5, r5, #2
 800104e:	40aa      	lsls	r2, r5
 8001050:	68a6      	ldr	r6, [r4, #8]
 8001052:	4396      	bics	r6, r2
 8001054:	2200      	movs	r2, #0
 8001056:	42b8      	cmp	r0, r7
 8001058:	d008      	beq.n	800106c <HAL_GPIO_Init+0xf8>
 800105a:	4f1c      	ldr	r7, [pc, #112]	@ (80010cc <HAL_GPIO_Init+0x158>)
 800105c:	3201      	adds	r2, #1
 800105e:	42b8      	cmp	r0, r7
 8001060:	d004      	beq.n	800106c <HAL_GPIO_Init+0xf8>
 8001062:	4f1b      	ldr	r7, [pc, #108]	@ (80010d0 <HAL_GPIO_Init+0x15c>)
 8001064:	3204      	adds	r2, #4
 8001066:	42b8      	cmp	r0, r7
 8001068:	d100      	bne.n	800106c <HAL_GPIO_Init+0xf8>
 800106a:	3a03      	subs	r2, #3
 800106c:	40aa      	lsls	r2, r5
 800106e:	4667      	mov	r7, ip
 8001070:	4332      	orrs	r2, r6
 8001072:	60a2      	str	r2, [r4, #8]
 8001074:	4a17      	ldr	r2, [pc, #92]	@ (80010d4 <HAL_GPIO_Init+0x160>)
 8001076:	9c00      	ldr	r4, [sp, #0]
 8001078:	6896      	ldr	r6, [r2, #8]
 800107a:	9d00      	ldr	r5, [sp, #0]
 800107c:	43e4      	mvns	r4, r4
 800107e:	4335      	orrs	r5, r6
 8001080:	02ff      	lsls	r7, r7, #11
 8001082:	d401      	bmi.n	8001088 <HAL_GPIO_Init+0x114>
 8001084:	0035      	movs	r5, r6
 8001086:	4025      	ands	r5, r4
 8001088:	4667      	mov	r7, ip
 800108a:	6095      	str	r5, [r2, #8]
 800108c:	68d6      	ldr	r6, [r2, #12]
 800108e:	9d00      	ldr	r5, [sp, #0]
 8001090:	4335      	orrs	r5, r6
 8001092:	02bf      	lsls	r7, r7, #10
 8001094:	d401      	bmi.n	800109a <HAL_GPIO_Init+0x126>
 8001096:	0035      	movs	r5, r6
 8001098:	4025      	ands	r5, r4
 800109a:	4667      	mov	r7, ip
 800109c:	60d5      	str	r5, [r2, #12]
 800109e:	6856      	ldr	r6, [r2, #4]
 80010a0:	9d00      	ldr	r5, [sp, #0]
 80010a2:	4335      	orrs	r5, r6
 80010a4:	03bf      	lsls	r7, r7, #14
 80010a6:	d401      	bmi.n	80010ac <HAL_GPIO_Init+0x138>
 80010a8:	0035      	movs	r5, r6
 80010aa:	4025      	ands	r5, r4
 80010ac:	4667      	mov	r7, ip
 80010ae:	6055      	str	r5, [r2, #4]
 80010b0:	6815      	ldr	r5, [r2, #0]
 80010b2:	9e00      	ldr	r6, [sp, #0]
 80010b4:	432e      	orrs	r6, r5
 80010b6:	03ff      	lsls	r7, r7, #15
 80010b8:	d401      	bmi.n	80010be <HAL_GPIO_Init+0x14a>
 80010ba:	4025      	ands	r5, r4
 80010bc:	002e      	movs	r6, r5
 80010be:	6016      	str	r6, [r2, #0]
 80010c0:	3301      	adds	r3, #1
 80010c2:	e75a      	b.n	8000f7a <HAL_GPIO_Init+0x6>
 80010c4:	40021000 	.word	0x40021000
 80010c8:	40010000 	.word	0x40010000
 80010cc:	48000400 	.word	0x48000400
 80010d0:	48000800 	.word	0x48000800
 80010d4:	40010400 	.word	0x40010400

080010d8 <HAL_GPIO_WritePin>:
 80010d8:	2a00      	cmp	r2, #0
 80010da:	d001      	beq.n	80010e0 <HAL_GPIO_WritePin+0x8>
 80010dc:	6181      	str	r1, [r0, #24]
 80010de:	4770      	bx	lr
 80010e0:	6281      	str	r1, [r0, #40]	@ 0x28
 80010e2:	e7fc      	b.n	80010de <HAL_GPIO_WritePin+0x6>

080010e4 <HAL_PCD_Init>:
 80010e4:	b570      	push	{r4, r5, r6, lr}
 80010e6:	0004      	movs	r4, r0
 80010e8:	2001      	movs	r0, #1
 80010ea:	2c00      	cmp	r4, #0
 80010ec:	d02b      	beq.n	8001146 <HAL_PCD_Init+0x62>
 80010ee:	4d22      	ldr	r5, [pc, #136]	@ (8001178 <HAL_PCD_Init+0x94>)
 80010f0:	5d63      	ldrb	r3, [r4, r5]
 80010f2:	b2da      	uxtb	r2, r3
 80010f4:	2b00      	cmp	r3, #0
 80010f6:	d105      	bne.n	8001104 <HAL_PCD_Init+0x20>
 80010f8:	23a4      	movs	r3, #164	@ 0xa4
 80010fa:	009b      	lsls	r3, r3, #2
 80010fc:	0020      	movs	r0, r4
 80010fe:	54e2      	strb	r2, [r4, r3]
 8001100:	f002 ff6a 	bl	8003fd8 <HAL_PCD_MspInit>
 8001104:	2303      	movs	r3, #3
 8001106:	5563      	strb	r3, [r4, r5]
 8001108:	6820      	ldr	r0, [r4, #0]
 800110a:	f001 fc93 	bl	8002a34 <USB_DisableGlobalInt>
 800110e:	2300      	movs	r3, #0
 8001110:	0022      	movs	r2, r4
 8001112:	0019      	movs	r1, r3
 8001114:	2601      	movs	r6, #1
 8001116:	7920      	ldrb	r0, [r4, #4]
 8001118:	3210      	adds	r2, #16
 800111a:	4298      	cmp	r0, r3
 800111c:	d114      	bne.n	8001148 <HAL_PCD_Init+0x64>
 800111e:	2100      	movs	r1, #0
 8001120:	0022      	movs	r2, r4
 8001122:	0008      	movs	r0, r1
 8001124:	3251      	adds	r2, #81	@ 0x51
 8001126:	32ff      	adds	r2, #255	@ 0xff
 8001128:	428b      	cmp	r3, r1
 800112a:	d117      	bne.n	800115c <HAL_PCD_Init+0x78>
 800112c:	6861      	ldr	r1, [r4, #4]
 800112e:	68a2      	ldr	r2, [r4, #8]
 8001130:	6820      	ldr	r0, [r4, #0]
 8001132:	f001 fc89 	bl	8002a48 <USB_DevInit>
 8001136:	2300      	movs	r3, #0
 8001138:	7323      	strb	r3, [r4, #12]
 800113a:	3301      	adds	r3, #1
 800113c:	5563      	strb	r3, [r4, r5]
 800113e:	7aa3      	ldrb	r3, [r4, #10]
 8001140:	2b01      	cmp	r3, #1
 8001142:	d015      	beq.n	8001170 <HAL_PCD_Init+0x8c>
 8001144:	2000      	movs	r0, #0
 8001146:	bd70      	pop	{r4, r5, r6, pc}
 8001148:	7013      	strb	r3, [r2, #0]
 800114a:	3301      	adds	r3, #1
 800114c:	7056      	strb	r6, [r2, #1]
 800114e:	70d1      	strb	r1, [r2, #3]
 8001150:	6111      	str	r1, [r2, #16]
 8001152:	6151      	str	r1, [r2, #20]
 8001154:	6191      	str	r1, [r2, #24]
 8001156:	b2db      	uxtb	r3, r3
 8001158:	3228      	adds	r2, #40	@ 0x28
 800115a:	e7de      	b.n	800111a <HAL_PCD_Init+0x36>
 800115c:	7011      	strb	r1, [r2, #0]
 800115e:	3101      	adds	r1, #1
 8001160:	7050      	strb	r0, [r2, #1]
 8001162:	70d0      	strb	r0, [r2, #3]
 8001164:	6110      	str	r0, [r2, #16]
 8001166:	6150      	str	r0, [r2, #20]
 8001168:	6190      	str	r0, [r2, #24]
 800116a:	b2c9      	uxtb	r1, r1
 800116c:	3228      	adds	r2, #40	@ 0x28
 800116e:	e7db      	b.n	8001128 <HAL_PCD_Init+0x44>
 8001170:	0020      	movs	r0, r4
 8001172:	f000 fe0e 	bl	8001d92 <HAL_PCDEx_ActivateLPM>
 8001176:	e7e5      	b.n	8001144 <HAL_PCD_Init+0x60>
 8001178:	00000291 	.word	0x00000291

0800117c <HAL_PCD_Start>:
 800117c:	b570      	push	{r4, r5, r6, lr}
 800117e:	25a4      	movs	r5, #164	@ 0xa4
 8001180:	00ad      	lsls	r5, r5, #2
 8001182:	5d43      	ldrb	r3, [r0, r5]
 8001184:	0004      	movs	r4, r0
 8001186:	2002      	movs	r0, #2
 8001188:	2b01      	cmp	r3, #1
 800118a:	d009      	beq.n	80011a0 <HAL_PCD_Start+0x24>
 800118c:	2301      	movs	r3, #1
 800118e:	5563      	strb	r3, [r4, r5]
 8001190:	6820      	ldr	r0, [r4, #0]
 8001192:	f001 fc45 	bl	8002a20 <USB_EnableGlobalInt>
 8001196:	6820      	ldr	r0, [r4, #0]
 8001198:	f001 fe4f 	bl	8002e3a <USB_DevConnect>
 800119c:	2000      	movs	r0, #0
 800119e:	5560      	strb	r0, [r4, r5]
 80011a0:	bd70      	pop	{r4, r5, r6, pc}

080011a2 <HAL_PCD_SetAddress>:
 80011a2:	b570      	push	{r4, r5, r6, lr}
 80011a4:	25a4      	movs	r5, #164	@ 0xa4
 80011a6:	00ad      	lsls	r5, r5, #2
 80011a8:	5d43      	ldrb	r3, [r0, r5]
 80011aa:	0004      	movs	r4, r0
 80011ac:	2002      	movs	r0, #2
 80011ae:	2b01      	cmp	r3, #1
 80011b0:	d007      	beq.n	80011c2 <HAL_PCD_SetAddress+0x20>
 80011b2:	2301      	movs	r3, #1
 80011b4:	5563      	strb	r3, [r4, r5]
 80011b6:	6820      	ldr	r0, [r4, #0]
 80011b8:	7321      	strb	r1, [r4, #12]
 80011ba:	f001 fe37 	bl	8002e2c <USB_SetDevAddress>
 80011be:	2000      	movs	r0, #0
 80011c0:	5560      	strb	r0, [r4, r5]
 80011c2:	bd70      	pop	{r4, r5, r6, pc}

080011c4 <HAL_PCD_IRQHandler>:
 80011c4:	b5f0      	push	{r4, r5, r6, r7, lr}
 80011c6:	0004      	movs	r4, r0
 80011c8:	b085      	sub	sp, #20
 80011ca:	6800      	ldr	r0, [r0, #0]
 80011cc:	f001 fe3d 	bl	8002e4a <USB_ReadInterrupts>
 80011d0:	2380      	movs	r3, #128	@ 0x80
 80011d2:	0005      	movs	r5, r0
 80011d4:	021b      	lsls	r3, r3, #8
 80011d6:	401d      	ands	r5, r3
 80011d8:	4218      	tst	r0, r3
 80011da:	d101      	bne.n	80011e0 <HAL_PCD_IRQHandler+0x1c>
 80011dc:	f000 fc27 	bl	8001a2e <HAL_PCD_IRQHandler+0x86a>
 80011e0:	6820      	ldr	r0, [r4, #0]
 80011e2:	1d82      	adds	r2, r0, #6
 80011e4:	8fd3      	ldrh	r3, [r2, #62]	@ 0x3e
 80011e6:	b21b      	sxth	r3, r3
 80011e8:	2b00      	cmp	r3, #0
 80011ea:	db01      	blt.n	80011f0 <HAL_PCD_IRQHandler+0x2c>
 80011ec:	b005      	add	sp, #20
 80011ee:	bdf0      	pop	{r4, r5, r6, r7, pc}
 80011f0:	210f      	movs	r1, #15
 80011f2:	8fd3      	ldrh	r3, [r2, #62]	@ 0x3e
 80011f4:	4019      	ands	r1, r3
 80011f6:	9100      	str	r1, [sp, #0]
 80011f8:	210f      	movs	r1, #15
 80011fa:	b29a      	uxth	r2, r3
 80011fc:	420b      	tst	r3, r1
 80011fe:	d000      	beq.n	8001202 <HAL_PCD_IRQHandler+0x3e>
 8001200:	e0c0      	b.n	8001384 <HAL_PCD_IRQHandler+0x1c0>
 8001202:	2310      	movs	r3, #16
 8001204:	0011      	movs	r1, r2
 8001206:	4019      	ands	r1, r3
 8001208:	421a      	tst	r2, r3
 800120a:	d127      	bne.n	800125c <HAL_PCD_IRQHandler+0x98>
 800120c:	8803      	ldrh	r3, [r0, #0]
 800120e:	4aca      	ldr	r2, [pc, #808]	@ (8001538 <HAL_PCD_IRQHandler+0x374>)
 8001210:	4013      	ands	r3, r2
 8001212:	2280      	movs	r2, #128	@ 0x80
 8001214:	0212      	lsls	r2, r2, #8
 8001216:	4313      	orrs	r3, r2
 8001218:	8003      	strh	r3, [r0, #0]
 800121a:	0003      	movs	r3, r0
 800121c:	3350      	adds	r3, #80	@ 0x50
 800121e:	881a      	ldrh	r2, [r3, #0]
 8001220:	7c23      	ldrb	r3, [r4, #16]
 8001222:	00db      	lsls	r3, r3, #3
 8001224:	18c3      	adds	r3, r0, r3
 8001226:	189b      	adds	r3, r3, r2
 8001228:	4ac4      	ldr	r2, [pc, #784]	@ (800153c <HAL_PCD_IRQHandler+0x378>)
 800122a:	0020      	movs	r0, r4
 800122c:	189b      	adds	r3, r3, r2
 800122e:	881b      	ldrh	r3, [r3, #0]
 8001230:	6a62      	ldr	r2, [r4, #36]	@ 0x24
 8001232:	059b      	lsls	r3, r3, #22
 8001234:	0d9b      	lsrs	r3, r3, #22
 8001236:	62e3      	str	r3, [r4, #44]	@ 0x2c
 8001238:	18d3      	adds	r3, r2, r3
 800123a:	6263      	str	r3, [r4, #36]	@ 0x24
 800123c:	f002 fefd 	bl	800403a <HAL_PCD_DataInStageCallback>
 8001240:	7b23      	ldrb	r3, [r4, #12]
 8001242:	2b00      	cmp	r3, #0
 8001244:	d0cc      	beq.n	80011e0 <HAL_PCD_IRQHandler+0x1c>
 8001246:	6aa1      	ldr	r1, [r4, #40]	@ 0x28
 8001248:	6823      	ldr	r3, [r4, #0]
 800124a:	2900      	cmp	r1, #0
 800124c:	d1c8      	bne.n	80011e0 <HAL_PCD_IRQHandler+0x1c>
 800124e:	2080      	movs	r0, #128	@ 0x80
 8001250:	7b22      	ldrb	r2, [r4, #12]
 8001252:	334c      	adds	r3, #76	@ 0x4c
 8001254:	4302      	orrs	r2, r0
 8001256:	801a      	strh	r2, [r3, #0]
 8001258:	7321      	strb	r1, [r4, #12]
 800125a:	e7c1      	b.n	80011e0 <HAL_PCD_IRQHandler+0x1c>
 800125c:	8802      	ldrh	r2, [r0, #0]
 800125e:	2180      	movs	r1, #128	@ 0x80
 8001260:	0016      	movs	r6, r2
 8001262:	0109      	lsls	r1, r1, #4
 8001264:	b293      	uxth	r3, r2
 8001266:	400e      	ands	r6, r1
 8001268:	420a      	tst	r2, r1
 800126a:	d022      	beq.n	80012b2 <HAL_PCD_IRQHandler+0xee>
 800126c:	0003      	movs	r3, r0
 800126e:	3350      	adds	r3, #80	@ 0x50
 8001270:	881a      	ldrh	r2, [r3, #0]
 8001272:	23a8      	movs	r3, #168	@ 0xa8
 8001274:	005b      	lsls	r3, r3, #1
 8001276:	5ce3      	ldrb	r3, [r4, r3]
 8001278:	21a6      	movs	r1, #166	@ 0xa6
 800127a:	00db      	lsls	r3, r3, #3
 800127c:	18c3      	adds	r3, r0, r3
 800127e:	189b      	adds	r3, r3, r2
 8001280:	4aaf      	ldr	r2, [pc, #700]	@ (8001540 <HAL_PCD_IRQHandler+0x37c>)
 8001282:	0089      	lsls	r1, r1, #2
 8001284:	189b      	adds	r3, r3, r2
 8001286:	0022      	movs	r2, r4
 8001288:	881b      	ldrh	r3, [r3, #0]
 800128a:	3251      	adds	r2, #81	@ 0x51
 800128c:	059b      	lsls	r3, r3, #22
 800128e:	0d9b      	lsrs	r3, r3, #22
 8001290:	32ff      	adds	r2, #255	@ 0xff
 8001292:	61d3      	str	r3, [r2, #28]
 8001294:	1861      	adds	r1, r4, r1
 8001296:	88d2      	ldrh	r2, [r2, #6]
 8001298:	f002 f822 	bl	80032e0 <USB_ReadPMA>
 800129c:	6821      	ldr	r1, [r4, #0]
 800129e:	4ba9      	ldr	r3, [pc, #676]	@ (8001544 <HAL_PCD_IRQHandler+0x380>)
 80012a0:	880a      	ldrh	r2, [r1, #0]
 80012a2:	0020      	movs	r0, r4
 80012a4:	401a      	ands	r2, r3
 80012a6:	2380      	movs	r3, #128	@ 0x80
 80012a8:	4313      	orrs	r3, r2
 80012aa:	800b      	strh	r3, [r1, #0]
 80012ac:	f002 feb0 	bl	8004010 <HAL_PCD_SetupStageCallback>
 80012b0:	e796      	b.n	80011e0 <HAL_PCD_IRQHandler+0x1c>
 80012b2:	b21b      	sxth	r3, r3
 80012b4:	2b00      	cmp	r3, #0
 80012b6:	db00      	blt.n	80012ba <HAL_PCD_IRQHandler+0xf6>
 80012b8:	e792      	b.n	80011e0 <HAL_PCD_IRQHandler+0x1c>
 80012ba:	8802      	ldrh	r2, [r0, #0]
 80012bc:	4ba1      	ldr	r3, [pc, #644]	@ (8001544 <HAL_PCD_IRQHandler+0x380>)
 80012be:	0025      	movs	r5, r4
 80012c0:	401a      	ands	r2, r3
 80012c2:	2380      	movs	r3, #128	@ 0x80
 80012c4:	4313      	orrs	r3, r2
 80012c6:	8003      	strh	r3, [r0, #0]
 80012c8:	0003      	movs	r3, r0
 80012ca:	3350      	adds	r3, #80	@ 0x50
 80012cc:	881a      	ldrh	r2, [r3, #0]
 80012ce:	23a8      	movs	r3, #168	@ 0xa8
 80012d0:	005b      	lsls	r3, r3, #1
 80012d2:	5ce3      	ldrb	r3, [r4, r3]
 80012d4:	3551      	adds	r5, #81	@ 0x51
 80012d6:	00db      	lsls	r3, r3, #3
 80012d8:	18c3      	adds	r3, r0, r3
 80012da:	189b      	adds	r3, r3, r2
 80012dc:	4a98      	ldr	r2, [pc, #608]	@ (8001540 <HAL_PCD_IRQHandler+0x37c>)
 80012de:	35ff      	adds	r5, #255	@ 0xff
 80012e0:	189b      	adds	r3, r3, r2
 80012e2:	881b      	ldrh	r3, [r3, #0]
 80012e4:	059b      	lsls	r3, r3, #22
 80012e6:	0d9b      	lsrs	r3, r3, #22
 80012e8:	61eb      	str	r3, [r5, #28]
 80012ea:	d00d      	beq.n	8001308 <HAL_PCD_IRQHandler+0x144>
 80012ec:	6969      	ldr	r1, [r5, #20]
 80012ee:	2900      	cmp	r1, #0
 80012f0:	d00a      	beq.n	8001308 <HAL_PCD_IRQHandler+0x144>
 80012f2:	88ea      	ldrh	r2, [r5, #6]
 80012f4:	f001 fff4 	bl	80032e0 <USB_ReadPMA>
 80012f8:	696b      	ldr	r3, [r5, #20]
 80012fa:	69ea      	ldr	r2, [r5, #28]
 80012fc:	0031      	movs	r1, r6
 80012fe:	189b      	adds	r3, r3, r2
 8001300:	0020      	movs	r0, r4
 8001302:	616b      	str	r3, [r5, #20]
 8001304:	f002 fe8d 	bl	8004022 <HAL_PCD_DataOutStageCallback>
 8001308:	6821      	ldr	r1, [r4, #0]
 800130a:	880a      	ldrh	r2, [r1, #0]
 800130c:	b293      	uxth	r3, r2
 800130e:	0512      	lsls	r2, r2, #20
 8001310:	d500      	bpl.n	8001314 <HAL_PCD_IRQHandler+0x150>
 8001312:	e765      	b.n	80011e0 <HAL_PCD_IRQHandler+0x1c>
 8001314:	22c0      	movs	r2, #192	@ 0xc0
 8001316:	0192      	lsls	r2, r2, #6
 8001318:	4013      	ands	r3, r2
 800131a:	4293      	cmp	r3, r2
 800131c:	d100      	bne.n	8001320 <HAL_PCD_IRQHandler+0x15c>
 800131e:	e75f      	b.n	80011e0 <HAL_PCD_IRQHandler+0x1c>
 8001320:	000b      	movs	r3, r1
 8001322:	4a87      	ldr	r2, [pc, #540]	@ (8001540 <HAL_PCD_IRQHandler+0x37c>)
 8001324:	3350      	adds	r3, #80	@ 0x50
 8001326:	881b      	ldrh	r3, [r3, #0]
 8001328:	188a      	adds	r2, r1, r2
 800132a:	18d2      	adds	r2, r2, r3
 800132c:	8813      	ldrh	r3, [r2, #0]
 800132e:	059b      	lsls	r3, r3, #22
 8001330:	0d9b      	lsrs	r3, r3, #22
 8001332:	8013      	strh	r3, [r2, #0]
 8001334:	692b      	ldr	r3, [r5, #16]
 8001336:	2b00      	cmp	r3, #0
 8001338:	d10e      	bne.n	8001358 <HAL_PCD_IRQHandler+0x194>
 800133a:	2080      	movs	r0, #128	@ 0x80
 800133c:	8813      	ldrh	r3, [r2, #0]
 800133e:	0200      	lsls	r0, r0, #8
 8001340:	4303      	orrs	r3, r0
 8001342:	8013      	strh	r3, [r2, #0]
 8001344:	880a      	ldrh	r2, [r1, #0]
 8001346:	4b80      	ldr	r3, [pc, #512]	@ (8001548 <HAL_PCD_IRQHandler+0x384>)
 8001348:	401a      	ands	r2, r3
 800134a:	23c0      	movs	r3, #192	@ 0xc0
 800134c:	019b      	lsls	r3, r3, #6
 800134e:	4053      	eors	r3, r2
 8001350:	4a7e      	ldr	r2, [pc, #504]	@ (800154c <HAL_PCD_IRQHandler+0x388>)
 8001352:	4313      	orrs	r3, r2
 8001354:	800b      	strh	r3, [r1, #0]
 8001356:	e743      	b.n	80011e0 <HAL_PCD_IRQHandler+0x1c>
 8001358:	2b3e      	cmp	r3, #62	@ 0x3e
 800135a:	d808      	bhi.n	800136e <HAL_PCD_IRQHandler+0x1aa>
 800135c:	2501      	movs	r5, #1
 800135e:	0858      	lsrs	r0, r3, #1
 8001360:	402b      	ands	r3, r5
 8001362:	18c0      	adds	r0, r0, r3
 8001364:	8813      	ldrh	r3, [r2, #0]
 8001366:	0280      	lsls	r0, r0, #10
 8001368:	4303      	orrs	r3, r0
 800136a:	b29b      	uxth	r3, r3
 800136c:	e7e9      	b.n	8001342 <HAL_PCD_IRQHandler+0x17e>
 800136e:	251f      	movs	r5, #31
 8001370:	0958      	lsrs	r0, r3, #5
 8001372:	402b      	ands	r3, r5
 8001374:	425d      	negs	r5, r3
 8001376:	416b      	adcs	r3, r5
 8001378:	1ac0      	subs	r0, r0, r3
 800137a:	8813      	ldrh	r3, [r2, #0]
 800137c:	0280      	lsls	r0, r0, #10
 800137e:	4318      	orrs	r0, r3
 8001380:	4b73      	ldr	r3, [pc, #460]	@ (8001550 <HAL_PCD_IRQHandler+0x38c>)
 8001382:	e7f1      	b.n	8001368 <HAL_PCD_IRQHandler+0x1a4>
 8001384:	9b00      	ldr	r3, [sp, #0]
 8001386:	009f      	lsls	r7, r3, #2
 8001388:	19c2      	adds	r2, r0, r7
 800138a:	8813      	ldrh	r3, [r2, #0]
 800138c:	b299      	uxth	r1, r3
 800138e:	b21b      	sxth	r3, r3
 8001390:	9101      	str	r1, [sp, #4]
 8001392:	2b00      	cmp	r3, #0
 8001394:	db00      	blt.n	8001398 <HAL_PCD_IRQHandler+0x1d4>
 8001396:	e092      	b.n	80014be <HAL_PCD_IRQHandler+0x2fa>
 8001398:	8813      	ldrh	r3, [r2, #0]
 800139a:	496a      	ldr	r1, [pc, #424]	@ (8001544 <HAL_PCD_IRQHandler+0x380>)
 800139c:	400b      	ands	r3, r1
 800139e:	2180      	movs	r1, #128	@ 0x80
 80013a0:	430b      	orrs	r3, r1
 80013a2:	8013      	strh	r3, [r2, #0]
 80013a4:	2328      	movs	r3, #40	@ 0x28
 80013a6:	9a00      	ldr	r2, [sp, #0]
 80013a8:	4353      	muls	r3, r2
 80013aa:	18e3      	adds	r3, r4, r3
 80013ac:	001a      	movs	r2, r3
 80013ae:	001d      	movs	r5, r3
 80013b0:	325d      	adds	r2, #93	@ 0x5d
 80013b2:	32ff      	adds	r2, #255	@ 0xff
 80013b4:	7812      	ldrb	r2, [r2, #0]
 80013b6:	3551      	adds	r5, #81	@ 0x51
 80013b8:	35ff      	adds	r5, #255	@ 0xff
 80013ba:	2a00      	cmp	r2, #0
 80013bc:	d114      	bne.n	80013e8 <HAL_PCD_IRQHandler+0x224>
 80013be:	0002      	movs	r2, r0
 80013c0:	3250      	adds	r2, #80	@ 0x50
 80013c2:	8811      	ldrh	r1, [r2, #0]
 80013c4:	782a      	ldrb	r2, [r5, #0]
 80013c6:	00d2      	lsls	r2, r2, #3
 80013c8:	1852      	adds	r2, r2, r1
 80013ca:	495d      	ldr	r1, [pc, #372]	@ (8001540 <HAL_PCD_IRQHandler+0x37c>)
 80013cc:	1812      	adds	r2, r2, r0
 80013ce:	1852      	adds	r2, r2, r1
 80013d0:	8812      	ldrh	r2, [r2, #0]
 80013d2:	0592      	lsls	r2, r2, #22
 80013d4:	0d95      	lsrs	r5, r2, #22
 80013d6:	2a00      	cmp	r2, #0
 80013d8:	d056      	beq.n	8001488 <HAL_PCD_IRQHandler+0x2c4>
 80013da:	001a      	movs	r2, r3
 80013dc:	3257      	adds	r2, #87	@ 0x57
 80013de:	32ff      	adds	r2, #255	@ 0xff
 80013e0:	33fc      	adds	r3, #252	@ 0xfc
 80013e2:	0019      	movs	r1, r3
 80013e4:	8812      	ldrh	r2, [r2, #0]
 80013e6:	e04b      	b.n	8001480 <HAL_PCD_IRQHandler+0x2bc>
 80013e8:	0019      	movs	r1, r3
 80013ea:	3154      	adds	r1, #84	@ 0x54
 80013ec:	31ff      	adds	r1, #255	@ 0xff
 80013ee:	7809      	ldrb	r1, [r1, #0]
 80013f0:	782a      	ldrb	r2, [r5, #0]
 80013f2:	2902      	cmp	r1, #2
 80013f4:	d000      	beq.n	80013f8 <HAL_PCD_IRQHandler+0x234>
 80013f6:	e0e3      	b.n	80015c0 <HAL_PCD_IRQHandler+0x3fc>
 80013f8:	2680      	movs	r6, #128	@ 0x80
 80013fa:	01f6      	lsls	r6, r6, #7
 80013fc:	46b4      	mov	ip, r6
 80013fe:	4665      	mov	r5, ip
 8001400:	9e01      	ldr	r6, [sp, #4]
 8001402:	33fc      	adds	r3, #252	@ 0xfc
 8001404:	402e      	ands	r6, r5
 8001406:	9603      	str	r6, [sp, #12]
 8001408:	0006      	movs	r6, r0
 800140a:	3650      	adds	r6, #80	@ 0x50
 800140c:	9602      	str	r6, [sp, #8]
 800140e:	4666      	mov	r6, ip
 8001410:	9d01      	ldr	r5, [sp, #4]
 8001412:	6ed9      	ldr	r1, [r3, #108]	@ 0x6c
 8001414:	4235      	tst	r5, r6
 8001416:	d100      	bne.n	800141a <HAL_PCD_IRQHandler+0x256>
 8001418:	e0a0      	b.n	800155c <HAL_PCD_IRQHandler+0x398>
 800141a:	9d02      	ldr	r5, [sp, #8]
 800141c:	882e      	ldrh	r6, [r5, #0]
 800141e:	00d5      	lsls	r5, r2, #3
 8001420:	1986      	adds	r6, r0, r6
 8001422:	1976      	adds	r6, r6, r5
 8001424:	4d45      	ldr	r5, [pc, #276]	@ (800153c <HAL_PCD_IRQHandler+0x378>)
 8001426:	1976      	adds	r6, r6, r5
 8001428:	8835      	ldrh	r5, [r6, #0]
 800142a:	05ad      	lsls	r5, r5, #22
 800142c:	0dad      	lsrs	r5, r5, #22
 800142e:	428d      	cmp	r5, r1
 8001430:	d90d      	bls.n	800144e <HAL_PCD_IRQHandler+0x28a>
 8001432:	2100      	movs	r1, #0
 8001434:	66d9      	str	r1, [r3, #108]	@ 0x6c
 8001436:	0091      	lsls	r1, r2, #2
 8001438:	1841      	adds	r1, r0, r1
 800143a:	880e      	ldrh	r6, [r1, #0]
 800143c:	4b42      	ldr	r3, [pc, #264]	@ (8001548 <HAL_PCD_IRQHandler+0x384>)
 800143e:	401e      	ands	r6, r3
 8001440:	2380      	movs	r3, #128	@ 0x80
 8001442:	019b      	lsls	r3, r3, #6
 8001444:	4073      	eors	r3, r6
 8001446:	4e41      	ldr	r6, [pc, #260]	@ (800154c <HAL_PCD_IRQHandler+0x388>)
 8001448:	4333      	orrs	r3, r6
 800144a:	800b      	strh	r3, [r1, #0]
 800144c:	e002      	b.n	8001454 <HAL_PCD_IRQHandler+0x290>
 800144e:	1b49      	subs	r1, r1, r5
 8001450:	66d9      	str	r1, [r3, #108]	@ 0x6c
 8001452:	d0f0      	beq.n	8001436 <HAL_PCD_IRQHandler+0x272>
 8001454:	9b01      	ldr	r3, [sp, #4]
 8001456:	065b      	lsls	r3, r3, #25
 8001458:	d507      	bpl.n	800146a <HAL_PCD_IRQHandler+0x2a6>
 800145a:	0092      	lsls	r2, r2, #2
 800145c:	1882      	adds	r2, r0, r2
 800145e:	8813      	ldrh	r3, [r2, #0]
 8001460:	493c      	ldr	r1, [pc, #240]	@ (8001554 <HAL_PCD_IRQHandler+0x390>)
 8001462:	400b      	ands	r3, r1
 8001464:	493c      	ldr	r1, [pc, #240]	@ (8001558 <HAL_PCD_IRQHandler+0x394>)
 8001466:	430b      	orrs	r3, r1
 8001468:	8013      	strh	r3, [r2, #0]
 800146a:	2d00      	cmp	r5, #0
 800146c:	d00c      	beq.n	8001488 <HAL_PCD_IRQHandler+0x2c4>
 800146e:	2328      	movs	r3, #40	@ 0x28
 8001470:	9a00      	ldr	r2, [sp, #0]
 8001472:	4353      	muls	r3, r2
 8001474:	18e1      	adds	r1, r4, r3
 8001476:	000a      	movs	r2, r1
 8001478:	3259      	adds	r2, #89	@ 0x59
 800147a:	32ff      	adds	r2, #255	@ 0xff
 800147c:	8812      	ldrh	r2, [r2, #0]
 800147e:	31fc      	adds	r1, #252	@ 0xfc
 8001480:	002b      	movs	r3, r5
 8001482:	6e89      	ldr	r1, [r1, #104]	@ 0x68
 8001484:	f001 ff2c 	bl	80032e0 <USB_ReadPMA>
 8001488:	2328      	movs	r3, #40	@ 0x28
 800148a:	9900      	ldr	r1, [sp, #0]
 800148c:	4359      	muls	r1, r3
 800148e:	1862      	adds	r2, r4, r1
 8001490:	32fc      	adds	r2, #252	@ 0xfc
 8001492:	6f10      	ldr	r0, [r2, #112]	@ 0x70
 8001494:	1940      	adds	r0, r0, r5
 8001496:	6710      	str	r0, [r2, #112]	@ 0x70
 8001498:	6e90      	ldr	r0, [r2, #104]	@ 0x68
 800149a:	1940      	adds	r0, r0, r5
 800149c:	6690      	str	r0, [r2, #104]	@ 0x68
 800149e:	6ed0      	ldr	r0, [r2, #108]	@ 0x6c
 80014a0:	2800      	cmp	r0, #0
 80014a2:	d003      	beq.n	80014ac <HAL_PCD_IRQHandler+0x2e8>
 80014a4:	6e52      	ldr	r2, [r2, #100]	@ 0x64
 80014a6:	4295      	cmp	r5, r2
 80014a8:	d300      	bcc.n	80014ac <HAL_PCD_IRQHandler+0x2e8>
 80014aa:	e0b3      	b.n	8001614 <HAL_PCD_IRQHandler+0x450>
 80014ac:	9a00      	ldr	r2, [sp, #0]
 80014ae:	0020      	movs	r0, r4
 80014b0:	4353      	muls	r3, r2
 80014b2:	18e3      	adds	r3, r4, r3
 80014b4:	3351      	adds	r3, #81	@ 0x51
 80014b6:	33ff      	adds	r3, #255	@ 0xff
 80014b8:	7819      	ldrb	r1, [r3, #0]
 80014ba:	f002 fdb2 	bl	8004022 <HAL_PCD_DataOutStageCallback>
 80014be:	2280      	movs	r2, #128	@ 0x80
 80014c0:	9b01      	ldr	r3, [sp, #4]
 80014c2:	6820      	ldr	r0, [r4, #0]
 80014c4:	4213      	tst	r3, r2
 80014c6:	d100      	bne.n	80014ca <HAL_PCD_IRQHandler+0x306>
 80014c8:	e68a      	b.n	80011e0 <HAL_PCD_IRQHandler+0x1c>
 80014ca:	19c2      	adds	r2, r0, r7
 80014cc:	8813      	ldrh	r3, [r2, #0]
 80014ce:	491a      	ldr	r1, [pc, #104]	@ (8001538 <HAL_PCD_IRQHandler+0x374>)
 80014d0:	9e00      	ldr	r6, [sp, #0]
 80014d2:	400b      	ands	r3, r1
 80014d4:	491e      	ldr	r1, [pc, #120]	@ (8001550 <HAL_PCD_IRQHandler+0x38c>)
 80014d6:	430b      	orrs	r3, r1
 80014d8:	b29b      	uxth	r3, r3
 80014da:	8013      	strh	r3, [r2, #0]
 80014dc:	2228      	movs	r2, #40	@ 0x28
 80014de:	4356      	muls	r6, r2
 80014e0:	19a3      	adds	r3, r4, r6
 80014e2:	7cd9      	ldrb	r1, [r3, #19]
 80014e4:	2901      	cmp	r1, #1
 80014e6:	d000      	beq.n	80014ea <HAL_PCD_IRQHandler+0x326>
 80014e8:	e0c7      	b.n	800167a <HAL_PCD_IRQHandler+0x4b6>
 80014ea:	9900      	ldr	r1, [sp, #0]
 80014ec:	3101      	adds	r1, #1
 80014ee:	434a      	muls	r2, r1
 80014f0:	2100      	movs	r1, #0
 80014f2:	5111      	str	r1, [r2, r4]
 80014f4:	7f1a      	ldrb	r2, [r3, #28]
 80014f6:	428a      	cmp	r2, r1
 80014f8:	d100      	bne.n	80014fc <HAL_PCD_IRQHandler+0x338>
 80014fa:	e09e      	b.n	800163a <HAL_PCD_IRQHandler+0x476>
 80014fc:	2240      	movs	r2, #64	@ 0x40
 80014fe:	9d01      	ldr	r5, [sp, #4]
 8001500:	9e01      	ldr	r6, [sp, #4]
 8001502:	4015      	ands	r5, r2
 8001504:	4216      	tst	r6, r2
 8001506:	d100      	bne.n	800150a <HAL_PCD_IRQHandler+0x346>
 8001508:	e0a0      	b.n	800164c <HAL_PCD_IRQHandler+0x488>
 800150a:	7c5a      	ldrb	r2, [r3, #17]
 800150c:	428a      	cmp	r2, r1
 800150e:	d000      	beq.n	8001512 <HAL_PCD_IRQHandler+0x34e>
 8001510:	e087      	b.n	8001622 <HAL_PCD_IRQHandler+0x45e>
 8001512:	0002      	movs	r2, r0
 8001514:	3250      	adds	r2, #80	@ 0x50
 8001516:	8811      	ldrh	r1, [r2, #0]
 8001518:	7c1a      	ldrb	r2, [r3, #16]
 800151a:	4b08      	ldr	r3, [pc, #32]	@ (800153c <HAL_PCD_IRQHandler+0x378>)
 800151c:	00d2      	lsls	r2, r2, #3
 800151e:	18c0      	adds	r0, r0, r3
 8001520:	1841      	adds	r1, r0, r1
 8001522:	1852      	adds	r2, r2, r1
 8001524:	8813      	ldrh	r3, [r2, #0]
 8001526:	490a      	ldr	r1, [pc, #40]	@ (8001550 <HAL_PCD_IRQHandler+0x38c>)
 8001528:	059b      	lsls	r3, r3, #22
 800152a:	0d9b      	lsrs	r3, r3, #22
 800152c:	8013      	strh	r3, [r2, #0]
 800152e:	8813      	ldrh	r3, [r2, #0]
 8001530:	430b      	orrs	r3, r1
 8001532:	b29b      	uxth	r3, r3
 8001534:	8013      	strh	r3, [r2, #0]
 8001536:	e080      	b.n	800163a <HAL_PCD_IRQHandler+0x476>
 8001538:	ffff8f0f 	.word	0xffff8f0f
 800153c:	00000402 	.word	0x00000402
 8001540:	00000406 	.word	0x00000406
 8001544:	00000f8f 	.word	0x00000f8f
 8001548:	ffffbf8f 	.word	0xffffbf8f
 800154c:	00008080 	.word	0x00008080
 8001550:	ffff8000 	.word	0xffff8000
 8001554:	ffff8f8f 	.word	0xffff8f8f
 8001558:	000080c0 	.word	0x000080c0
 800155c:	9d02      	ldr	r5, [sp, #8]
 800155e:	882e      	ldrh	r6, [r5, #0]
 8001560:	00d5      	lsls	r5, r2, #3
 8001562:	1986      	adds	r6, r0, r6
 8001564:	1976      	adds	r6, r6, r5
 8001566:	4dc7      	ldr	r5, [pc, #796]	@ (8001884 <HAL_PCD_IRQHandler+0x6c0>)
 8001568:	1976      	adds	r6, r6, r5
 800156a:	8835      	ldrh	r5, [r6, #0]
 800156c:	05ad      	lsls	r5, r5, #22
 800156e:	0dad      	lsrs	r5, r5, #22
 8001570:	428d      	cmp	r5, r1
 8001572:	d90d      	bls.n	8001590 <HAL_PCD_IRQHandler+0x3cc>
 8001574:	9903      	ldr	r1, [sp, #12]
 8001576:	66d9      	str	r1, [r3, #108]	@ 0x6c
 8001578:	0091      	lsls	r1, r2, #2
 800157a:	1841      	adds	r1, r0, r1
 800157c:	880e      	ldrh	r6, [r1, #0]
 800157e:	4bc2      	ldr	r3, [pc, #776]	@ (8001888 <HAL_PCD_IRQHandler+0x6c4>)
 8001580:	401e      	ands	r6, r3
 8001582:	2380      	movs	r3, #128	@ 0x80
 8001584:	019b      	lsls	r3, r3, #6
 8001586:	4073      	eors	r3, r6
 8001588:	4ec0      	ldr	r6, [pc, #768]	@ (800188c <HAL_PCD_IRQHandler+0x6c8>)
 800158a:	4333      	orrs	r3, r6
 800158c:	800b      	strh	r3, [r1, #0]
 800158e:	e002      	b.n	8001596 <HAL_PCD_IRQHandler+0x3d2>
 8001590:	1b49      	subs	r1, r1, r5
 8001592:	66d9      	str	r1, [r3, #108]	@ 0x6c
 8001594:	d0f0      	beq.n	8001578 <HAL_PCD_IRQHandler+0x3b4>
 8001596:	9b01      	ldr	r3, [sp, #4]
 8001598:	065b      	lsls	r3, r3, #25
 800159a:	d407      	bmi.n	80015ac <HAL_PCD_IRQHandler+0x3e8>
 800159c:	0092      	lsls	r2, r2, #2
 800159e:	1882      	adds	r2, r0, r2
 80015a0:	8813      	ldrh	r3, [r2, #0]
 80015a2:	49bb      	ldr	r1, [pc, #748]	@ (8001890 <HAL_PCD_IRQHandler+0x6cc>)
 80015a4:	400b      	ands	r3, r1
 80015a6:	49bb      	ldr	r1, [pc, #748]	@ (8001894 <HAL_PCD_IRQHandler+0x6d0>)
 80015a8:	430b      	orrs	r3, r1
 80015aa:	8013      	strh	r3, [r2, #0]
 80015ac:	2d00      	cmp	r5, #0
 80015ae:	d100      	bne.n	80015b2 <HAL_PCD_IRQHandler+0x3ee>
 80015b0:	e76a      	b.n	8001488 <HAL_PCD_IRQHandler+0x2c4>
 80015b2:	2328      	movs	r3, #40	@ 0x28
 80015b4:	9a00      	ldr	r2, [sp, #0]
 80015b6:	4353      	muls	r3, r2
 80015b8:	18e1      	adds	r1, r4, r3
 80015ba:	000a      	movs	r2, r1
 80015bc:	325b      	adds	r2, #91	@ 0x5b
 80015be:	e75c      	b.n	800147a <HAL_PCD_IRQHandler+0x2b6>
 80015c0:	0092      	lsls	r2, r2, #2
 80015c2:	1882      	adds	r2, r0, r2
 80015c4:	8816      	ldrh	r6, [r2, #0]
 80015c6:	49b2      	ldr	r1, [pc, #712]	@ (8001890 <HAL_PCD_IRQHandler+0x6cc>)
 80015c8:	4031      	ands	r1, r6
 80015ca:	4eb2      	ldr	r6, [pc, #712]	@ (8001894 <HAL_PCD_IRQHandler+0x6d0>)
 80015cc:	4331      	orrs	r1, r6
 80015ce:	8011      	strh	r1, [r2, #0]
 80015d0:	782a      	ldrb	r2, [r5, #0]
 80015d2:	0091      	lsls	r1, r2, #2
 80015d4:	1841      	adds	r1, r0, r1
 80015d6:	880d      	ldrh	r5, [r1, #0]
 80015d8:	0001      	movs	r1, r0
 80015da:	3150      	adds	r1, #80	@ 0x50
 80015dc:	8809      	ldrh	r1, [r1, #0]
 80015de:	00d2      	lsls	r2, r2, #3
 80015e0:	1852      	adds	r2, r2, r1
 80015e2:	1812      	adds	r2, r2, r0
 80015e4:	046d      	lsls	r5, r5, #17
 80015e6:	d50a      	bpl.n	80015fe <HAL_PCD_IRQHandler+0x43a>
 80015e8:	49ab      	ldr	r1, [pc, #684]	@ (8001898 <HAL_PCD_IRQHandler+0x6d4>)
 80015ea:	1852      	adds	r2, r2, r1
 80015ec:	8812      	ldrh	r2, [r2, #0]
 80015ee:	0592      	lsls	r2, r2, #22
 80015f0:	0d95      	lsrs	r5, r2, #22
 80015f2:	2a00      	cmp	r2, #0
 80015f4:	d100      	bne.n	80015f8 <HAL_PCD_IRQHandler+0x434>
 80015f6:	e747      	b.n	8001488 <HAL_PCD_IRQHandler+0x2c4>
 80015f8:	001a      	movs	r2, r3
 80015fa:	3259      	adds	r2, #89	@ 0x59
 80015fc:	e6ef      	b.n	80013de <HAL_PCD_IRQHandler+0x21a>
 80015fe:	49a1      	ldr	r1, [pc, #644]	@ (8001884 <HAL_PCD_IRQHandler+0x6c0>)
 8001600:	1852      	adds	r2, r2, r1
 8001602:	8812      	ldrh	r2, [r2, #0]
 8001604:	0592      	lsls	r2, r2, #22
 8001606:	0d95      	lsrs	r5, r2, #22
 8001608:	2a00      	cmp	r2, #0
 800160a:	d100      	bne.n	800160e <HAL_PCD_IRQHandler+0x44a>
 800160c:	e73c      	b.n	8001488 <HAL_PCD_IRQHandler+0x2c4>
 800160e:	001a      	movs	r2, r3
 8001610:	325b      	adds	r2, #91	@ 0x5b
 8001612:	e6e4      	b.n	80013de <HAL_PCD_IRQHandler+0x21a>
 8001614:	3151      	adds	r1, #81	@ 0x51
 8001616:	31ff      	adds	r1, #255	@ 0xff
 8001618:	6820      	ldr	r0, [r4, #0]
 800161a:	1861      	adds	r1, r4, r1
 800161c:	f001 fc2e 	bl	8002e7c <USB_EPStartXfer>
 8001620:	e74d      	b.n	80014be <HAL_PCD_IRQHandler+0x2fa>
 8001622:	2a01      	cmp	r2, #1
 8001624:	d109      	bne.n	800163a <HAL_PCD_IRQHandler+0x476>
 8001626:	0002      	movs	r2, r0
 8001628:	4d9b      	ldr	r5, [pc, #620]	@ (8001898 <HAL_PCD_IRQHandler+0x6d4>)
 800162a:	3250      	adds	r2, #80	@ 0x50
 800162c:	8812      	ldrh	r2, [r2, #0]
 800162e:	7c1b      	ldrb	r3, [r3, #16]
 8001630:	1940      	adds	r0, r0, r5
 8001632:	00db      	lsls	r3, r3, #3
 8001634:	1880      	adds	r0, r0, r2
 8001636:	181b      	adds	r3, r3, r0
 8001638:	8019      	strh	r1, [r3, #0]
 800163a:	2328      	movs	r3, #40	@ 0x28
 800163c:	9a00      	ldr	r2, [sp, #0]
 800163e:	4353      	muls	r3, r2
 8001640:	18e3      	adds	r3, r4, r3
 8001642:	7c19      	ldrb	r1, [r3, #16]
 8001644:	0020      	movs	r0, r4
 8001646:	f002 fcf8 	bl	800403a <HAL_PCD_DataInStageCallback>
 800164a:	e5c9      	b.n	80011e0 <HAL_PCD_IRQHandler+0x1c>
 800164c:	7c5a      	ldrb	r2, [r3, #17]
 800164e:	2a00      	cmp	r2, #0
 8001650:	d106      	bne.n	8001660 <HAL_PCD_IRQHandler+0x49c>
 8001652:	0002      	movs	r2, r0
 8001654:	3250      	adds	r2, #80	@ 0x50
 8001656:	8811      	ldrh	r1, [r2, #0]
 8001658:	7c1a      	ldrb	r2, [r3, #16]
 800165a:	4b8a      	ldr	r3, [pc, #552]	@ (8001884 <HAL_PCD_IRQHandler+0x6c0>)
 800165c:	00d2      	lsls	r2, r2, #3
 800165e:	e75e      	b.n	800151e <HAL_PCD_IRQHandler+0x35a>
 8001660:	2a01      	cmp	r2, #1
 8001662:	d1ea      	bne.n	800163a <HAL_PCD_IRQHandler+0x476>
 8001664:	0002      	movs	r2, r0
 8001666:	4987      	ldr	r1, [pc, #540]	@ (8001884 <HAL_PCD_IRQHandler+0x6c0>)
 8001668:	3250      	adds	r2, #80	@ 0x50
 800166a:	8812      	ldrh	r2, [r2, #0]
 800166c:	7c1b      	ldrb	r3, [r3, #16]
 800166e:	1840      	adds	r0, r0, r1
 8001670:	00db      	lsls	r3, r3, #3
 8001672:	1880      	adds	r0, r0, r2
 8001674:	181b      	adds	r3, r3, r0
 8001676:	801d      	strh	r5, [r3, #0]
 8001678:	e7df      	b.n	800163a <HAL_PCD_IRQHandler+0x476>
 800167a:	2780      	movs	r7, #128	@ 0x80
 800167c:	9901      	ldr	r1, [sp, #4]
 800167e:	007f      	lsls	r7, r7, #1
 8001680:	4039      	ands	r1, r7
 8001682:	7c1a      	ldrb	r2, [r3, #16]
 8001684:	468c      	mov	ip, r1
 8001686:	9901      	ldr	r1, [sp, #4]
 8001688:	9202      	str	r2, [sp, #8]
 800168a:	6a9d      	ldr	r5, [r3, #40]	@ 0x28
 800168c:	00d2      	lsls	r2, r2, #3
 800168e:	4239      	tst	r1, r7
 8001690:	d11c      	bne.n	80016cc <HAL_PCD_IRQHandler+0x508>
 8001692:	0007      	movs	r7, r0
 8001694:	3750      	adds	r7, #80	@ 0x50
 8001696:	883f      	ldrh	r7, [r7, #0]
 8001698:	18bf      	adds	r7, r7, r2
 800169a:	4a7f      	ldr	r2, [pc, #508]	@ (8001898 <HAL_PCD_IRQHandler+0x6d4>)
 800169c:	183f      	adds	r7, r7, r0
 800169e:	18bf      	adds	r7, r7, r2
 80016a0:	883a      	ldrh	r2, [r7, #0]
 80016a2:	0592      	lsls	r2, r2, #22
 80016a4:	0d92      	lsrs	r2, r2, #22
 80016a6:	42aa      	cmp	r2, r5
 80016a8:	d303      	bcc.n	80016b2 <HAL_PCD_IRQHandler+0x4ee>
 80016aa:	4662      	mov	r2, ip
 80016ac:	9902      	ldr	r1, [sp, #8]
 80016ae:	629a      	str	r2, [r3, #40]	@ 0x28
 80016b0:	e7c8      	b.n	8001644 <HAL_PCD_IRQHandler+0x480>
 80016b2:	6a59      	ldr	r1, [r3, #36]	@ 0x24
 80016b4:	1aad      	subs	r5, r5, r2
 80016b6:	1889      	adds	r1, r1, r2
 80016b8:	6259      	str	r1, [r3, #36]	@ 0x24
 80016ba:	6ad9      	ldr	r1, [r3, #44]	@ 0x2c
 80016bc:	3610      	adds	r6, #16
 80016be:	188a      	adds	r2, r1, r2
 80016c0:	629d      	str	r5, [r3, #40]	@ 0x28
 80016c2:	62da      	str	r2, [r3, #44]	@ 0x2c
 80016c4:	19a1      	adds	r1, r4, r6
 80016c6:	f001 fbd9 	bl	8002e7c <USB_EPStartXfer>
 80016ca:	e589      	b.n	80011e0 <HAL_PCD_IRQHandler+0x1c>
 80016cc:	2140      	movs	r1, #64	@ 0x40
 80016ce:	468c      	mov	ip, r1
 80016d0:	9f01      	ldr	r7, [sp, #4]
 80016d2:	0006      	movs	r6, r0
 80016d4:	400f      	ands	r7, r1
 80016d6:	9703      	str	r7, [sp, #12]
 80016d8:	4667      	mov	r7, ip
 80016da:	9901      	ldr	r1, [sp, #4]
 80016dc:	3650      	adds	r6, #80	@ 0x50
 80016de:	4239      	tst	r1, r7
 80016e0:	d100      	bne.n	80016e4 <HAL_PCD_IRQHandler+0x520>
 80016e2:	e0df      	b.n	80018a4 <HAL_PCD_IRQHandler+0x6e0>
 80016e4:	496c      	ldr	r1, [pc, #432]	@ (8001898 <HAL_PCD_IRQHandler+0x6d4>)
 80016e6:	8837      	ldrh	r7, [r6, #0]
 80016e8:	1846      	adds	r6, r0, r1
 80016ea:	2100      	movs	r1, #0
 80016ec:	19f7      	adds	r7, r6, r7
 80016ee:	5abf      	ldrh	r7, [r7, r2]
 80016f0:	468c      	mov	ip, r1
 80016f2:	05bf      	lsls	r7, r7, #22
 80016f4:	0dbf      	lsrs	r7, r7, #22
 80016f6:	42af      	cmp	r7, r5
 80016f8:	d201      	bcs.n	80016fe <HAL_PCD_IRQHandler+0x53a>
 80016fa:	1be9      	subs	r1, r5, r7
 80016fc:	468c      	mov	ip, r1
 80016fe:	4661      	mov	r1, ip
 8001700:	2580      	movs	r5, #128	@ 0x80
 8001702:	6299      	str	r1, [r3, #40]	@ 0x28
 8001704:	9901      	ldr	r1, [sp, #4]
 8001706:	01ed      	lsls	r5, r5, #7
 8001708:	4029      	ands	r1, r5
 800170a:	000d      	movs	r5, r1
 800170c:	4661      	mov	r1, ip
 800170e:	2900      	cmp	r1, #0
 8001710:	d147      	bne.n	80017a2 <HAL_PCD_IRQHandler+0x5de>
 8001712:	2328      	movs	r3, #40	@ 0x28
 8001714:	9900      	ldr	r1, [sp, #0]
 8001716:	434b      	muls	r3, r1
 8001718:	18e3      	adds	r3, r4, r3
 800171a:	7c5b      	ldrb	r3, [r3, #17]
 800171c:	2b00      	cmp	r3, #0
 800171e:	d130      	bne.n	8001782 <HAL_PCD_IRQHandler+0x5be>
 8001720:	0007      	movs	r7, r0
 8001722:	3750      	adds	r7, #80	@ 0x50
 8001724:	883b      	ldrh	r3, [r7, #0]
 8001726:	495d      	ldr	r1, [pc, #372]	@ (800189c <HAL_PCD_IRQHandler+0x6d8>)
 8001728:	18f3      	adds	r3, r6, r3
 800172a:	189b      	adds	r3, r3, r2
 800172c:	881e      	ldrh	r6, [r3, #0]
 800172e:	05b6      	lsls	r6, r6, #22
 8001730:	0db6      	lsrs	r6, r6, #22
 8001732:	801e      	strh	r6, [r3, #0]
 8001734:	881e      	ldrh	r6, [r3, #0]
 8001736:	430e      	orrs	r6, r1
 8001738:	b2b6      	uxth	r6, r6
 800173a:	801e      	strh	r6, [r3, #0]
 800173c:	4e51      	ldr	r6, [pc, #324]	@ (8001884 <HAL_PCD_IRQHandler+0x6c0>)
 800173e:	883b      	ldrh	r3, [r7, #0]
 8001740:	1980      	adds	r0, r0, r6
 8001742:	18c0      	adds	r0, r0, r3
 8001744:	1880      	adds	r0, r0, r2
 8001746:	8803      	ldrh	r3, [r0, #0]
 8001748:	059b      	lsls	r3, r3, #22
 800174a:	0d9b      	lsrs	r3, r3, #22
 800174c:	8003      	strh	r3, [r0, #0]
 800174e:	8803      	ldrh	r3, [r0, #0]
 8001750:	430b      	orrs	r3, r1
 8001752:	b29b      	uxth	r3, r3
 8001754:	8003      	strh	r3, [r0, #0]
 8001756:	0020      	movs	r0, r4
 8001758:	9902      	ldr	r1, [sp, #8]
 800175a:	f002 fc6e 	bl	800403a <HAL_PCD_DataInStageCallback>
 800175e:	2d00      	cmp	r5, #0
 8001760:	d100      	bne.n	8001764 <HAL_PCD_IRQHandler+0x5a0>
 8001762:	e0dc      	b.n	800191e <HAL_PCD_IRQHandler+0x75a>
 8001764:	2328      	movs	r3, #40	@ 0x28
 8001766:	9a00      	ldr	r2, [sp, #0]
 8001768:	4949      	ldr	r1, [pc, #292]	@ (8001890 <HAL_PCD_IRQHandler+0x6cc>)
 800176a:	4353      	muls	r3, r2
 800176c:	18e3      	adds	r3, r4, r3
 800176e:	7c1b      	ldrb	r3, [r3, #16]
 8001770:	6822      	ldr	r2, [r4, #0]
 8001772:	009b      	lsls	r3, r3, #2
 8001774:	18d2      	adds	r2, r2, r3
 8001776:	8813      	ldrh	r3, [r2, #0]
 8001778:	400b      	ands	r3, r1
 800177a:	4949      	ldr	r1, [pc, #292]	@ (80018a0 <HAL_PCD_IRQHandler+0x6dc>)
 800177c:	430b      	orrs	r3, r1
 800177e:	8013      	strh	r3, [r2, #0]
 8001780:	e0cd      	b.n	800191e <HAL_PCD_IRQHandler+0x75a>
 8001782:	2b01      	cmp	r3, #1
 8001784:	d1e7      	bne.n	8001756 <HAL_PCD_IRQHandler+0x592>
 8001786:	0007      	movs	r7, r0
 8001788:	4661      	mov	r1, ip
 800178a:	3750      	adds	r7, #80	@ 0x50
 800178c:	883b      	ldrh	r3, [r7, #0]
 800178e:	18f3      	adds	r3, r6, r3
 8001790:	189b      	adds	r3, r3, r2
 8001792:	8019      	strh	r1, [r3, #0]
 8001794:	493b      	ldr	r1, [pc, #236]	@ (8001884 <HAL_PCD_IRQHandler+0x6c0>)
 8001796:	883b      	ldrh	r3, [r7, #0]
 8001798:	1840      	adds	r0, r0, r1
 800179a:	18c0      	adds	r0, r0, r3
 800179c:	1880      	adds	r0, r0, r2
 800179e:	4663      	mov	r3, ip
 80017a0:	e7d8      	b.n	8001754 <HAL_PCD_IRQHandler+0x590>
 80017a2:	2d00      	cmp	r5, #0
 80017a4:	d00c      	beq.n	80017c0 <HAL_PCD_IRQHandler+0x5fc>
 80017a6:	9902      	ldr	r1, [sp, #8]
 80017a8:	0089      	lsls	r1, r1, #2
 80017aa:	1841      	adds	r1, r0, r1
 80017ac:	880d      	ldrh	r5, [r1, #0]
 80017ae:	9101      	str	r1, [sp, #4]
 80017b0:	46ac      	mov	ip, r5
 80017b2:	4661      	mov	r1, ip
 80017b4:	4d36      	ldr	r5, [pc, #216]	@ (8001890 <HAL_PCD_IRQHandler+0x6cc>)
 80017b6:	400d      	ands	r5, r1
 80017b8:	4939      	ldr	r1, [pc, #228]	@ (80018a0 <HAL_PCD_IRQHandler+0x6dc>)
 80017ba:	430d      	orrs	r5, r1
 80017bc:	9901      	ldr	r1, [sp, #4]
 80017be:	800d      	strh	r5, [r1, #0]
 80017c0:	2528      	movs	r5, #40	@ 0x28
 80017c2:	9900      	ldr	r1, [sp, #0]
 80017c4:	434d      	muls	r5, r1
 80017c6:	2134      	movs	r1, #52	@ 0x34
 80017c8:	468c      	mov	ip, r1
 80017ca:	1965      	adds	r5, r4, r5
 80017cc:	44ac      	add	ip, r5
 80017ce:	4661      	mov	r1, ip
 80017d0:	7809      	ldrb	r1, [r1, #0]
 80017d2:	2901      	cmp	r1, #1
 80017d4:	d000      	beq.n	80017d8 <HAL_PCD_IRQHandler+0x614>
 80017d6:	e0a2      	b.n	800191e <HAL_PCD_IRQHandler+0x75a>
 80017d8:	6a69      	ldr	r1, [r5, #36]	@ 0x24
 80017da:	19c9      	adds	r1, r1, r7
 80017dc:	6269      	str	r1, [r5, #36]	@ 0x24
 80017de:	9101      	str	r1, [sp, #4]
 80017e0:	6ad9      	ldr	r1, [r3, #44]	@ 0x2c
 80017e2:	19c9      	adds	r1, r1, r7
 80017e4:	62d9      	str	r1, [r3, #44]	@ 0x2c
 80017e6:	6b2b      	ldr	r3, [r5, #48]	@ 0x30
 80017e8:	6a29      	ldr	r1, [r5, #32]
 80017ea:	428b      	cmp	r3, r1
 80017ec:	d317      	bcc.n	800181e <HAL_PCD_IRQHandler+0x65a>
 80017ee:	1a5b      	subs	r3, r3, r1
 80017f0:	632b      	str	r3, [r5, #48]	@ 0x30
 80017f2:	2328      	movs	r3, #40	@ 0x28
 80017f4:	9d00      	ldr	r5, [sp, #0]
 80017f6:	436b      	muls	r3, r5
 80017f8:	18e3      	adds	r3, r4, r3
 80017fa:	7c5d      	ldrb	r5, [r3, #17]
 80017fc:	b28b      	uxth	r3, r1
 80017fe:	2d00      	cmp	r5, #0
 8001800:	d137      	bne.n	8001872 <HAL_PCD_IRQHandler+0x6ae>
 8001802:	0005      	movs	r5, r0
 8001804:	3550      	adds	r5, #80	@ 0x50
 8001806:	882d      	ldrh	r5, [r5, #0]
 8001808:	1975      	adds	r5, r6, r5
 800180a:	18aa      	adds	r2, r5, r2
 800180c:	8815      	ldrh	r5, [r2, #0]
 800180e:	05ad      	lsls	r5, r5, #22
 8001810:	0dad      	lsrs	r5, r5, #22
 8001812:	8015      	strh	r5, [r2, #0]
 8001814:	2900      	cmp	r1, #0
 8001816:	d10e      	bne.n	8001836 <HAL_PCD_IRQHandler+0x672>
 8001818:	8811      	ldrh	r1, [r2, #0]
 800181a:	4d20      	ldr	r5, [pc, #128]	@ (800189c <HAL_PCD_IRQHandler+0x6d8>)
 800181c:	e013      	b.n	8001846 <HAL_PCD_IRQHandler+0x682>
 800181e:	2b00      	cmp	r3, #0
 8001820:	d103      	bne.n	800182a <HAL_PCD_IRQHandler+0x666>
 8001822:	4661      	mov	r1, ip
 8001824:	700b      	strb	r3, [r1, #0]
 8001826:	0039      	movs	r1, r7
 8001828:	e7e3      	b.n	80017f2 <HAL_PCD_IRQHandler+0x62e>
 800182a:	2100      	movs	r1, #0
 800182c:	4667      	mov	r7, ip
 800182e:	7039      	strb	r1, [r7, #0]
 8001830:	6329      	str	r1, [r5, #48]	@ 0x30
 8001832:	0019      	movs	r1, r3
 8001834:	e7dd      	b.n	80017f2 <HAL_PCD_IRQHandler+0x62e>
 8001836:	293e      	cmp	r1, #62	@ 0x3e
 8001838:	d811      	bhi.n	800185e <HAL_PCD_IRQHandler+0x69a>
 800183a:	2601      	movs	r6, #1
 800183c:	084d      	lsrs	r5, r1, #1
 800183e:	400e      	ands	r6, r1
 8001840:	19ad      	adds	r5, r5, r6
 8001842:	8811      	ldrh	r1, [r2, #0]
 8001844:	02ad      	lsls	r5, r5, #10
 8001846:	4329      	orrs	r1, r5
 8001848:	b289      	uxth	r1, r1
 800184a:	8011      	strh	r1, [r2, #0]
 800184c:	2228      	movs	r2, #40	@ 0x28
 800184e:	9900      	ldr	r1, [sp, #0]
 8001850:	434a      	muls	r2, r1
 8001852:	18a2      	adds	r2, r4, r2
 8001854:	8b12      	ldrh	r2, [r2, #24]
 8001856:	9901      	ldr	r1, [sp, #4]
 8001858:	f001 fafb 	bl	8002e52 <USB_WritePMA>
 800185c:	e05f      	b.n	800191e <HAL_PCD_IRQHandler+0x75a>
 800185e:	261f      	movs	r6, #31
 8001860:	094d      	lsrs	r5, r1, #5
 8001862:	4031      	ands	r1, r6
 8001864:	424e      	negs	r6, r1
 8001866:	4171      	adcs	r1, r6
 8001868:	1a6d      	subs	r5, r5, r1
 800186a:	8811      	ldrh	r1, [r2, #0]
 800186c:	02ad      	lsls	r5, r5, #10
 800186e:	4329      	orrs	r1, r5
 8001870:	e7d3      	b.n	800181a <HAL_PCD_IRQHandler+0x656>
 8001872:	2d01      	cmp	r5, #1
 8001874:	d1ea      	bne.n	800184c <HAL_PCD_IRQHandler+0x688>
 8001876:	0001      	movs	r1, r0
 8001878:	3150      	adds	r1, #80	@ 0x50
 800187a:	8809      	ldrh	r1, [r1, #0]
 800187c:	1876      	adds	r6, r6, r1
 800187e:	18b6      	adds	r6, r6, r2
 8001880:	8033      	strh	r3, [r6, #0]
 8001882:	e7e3      	b.n	800184c <HAL_PCD_IRQHandler+0x688>
 8001884:	00000406 	.word	0x00000406
 8001888:	ffffbf8f 	.word	0xffffbf8f
 800188c:	00008080 	.word	0x00008080
 8001890:	ffff8f8f 	.word	0xffff8f8f
 8001894:	000080c0 	.word	0x000080c0
 8001898:	00000402 	.word	0x00000402
 800189c:	ffff8000 	.word	0xffff8000
 80018a0:	0000c080 	.word	0x0000c080
 80018a4:	49ac      	ldr	r1, [pc, #688]	@ (8001b58 <HAL_PCD_IRQHandler+0x994>)
 80018a6:	8836      	ldrh	r6, [r6, #0]
 80018a8:	468c      	mov	ip, r1
 80018aa:	4484      	add	ip, r0
 80018ac:	4466      	add	r6, ip
 80018ae:	5ab6      	ldrh	r6, [r6, r2]
 80018b0:	9f03      	ldr	r7, [sp, #12]
 80018b2:	05b6      	lsls	r6, r6, #22
 80018b4:	0db6      	lsrs	r6, r6, #22
 80018b6:	42ae      	cmp	r6, r5
 80018b8:	d800      	bhi.n	80018bc <HAL_PCD_IRQHandler+0x6f8>
 80018ba:	1baf      	subs	r7, r5, r6
 80018bc:	2580      	movs	r5, #128	@ 0x80
 80018be:	9901      	ldr	r1, [sp, #4]
 80018c0:	01ed      	lsls	r5, r5, #7
 80018c2:	4029      	ands	r1, r5
 80018c4:	000d      	movs	r5, r1
 80018c6:	629f      	str	r7, [r3, #40]	@ 0x28
 80018c8:	2f00      	cmp	r7, #0
 80018ca:	d149      	bne.n	8001960 <HAL_PCD_IRQHandler+0x79c>
 80018cc:	2328      	movs	r3, #40	@ 0x28
 80018ce:	9900      	ldr	r1, [sp, #0]
 80018d0:	434b      	muls	r3, r1
 80018d2:	18e3      	adds	r3, r4, r3
 80018d4:	7c5b      	ldrb	r3, [r3, #17]
 80018d6:	2b00      	cmp	r3, #0
 80018d8:	d133      	bne.n	8001942 <HAL_PCD_IRQHandler+0x77e>
 80018da:	0003      	movs	r3, r0
 80018dc:	499f      	ldr	r1, [pc, #636]	@ (8001b5c <HAL_PCD_IRQHandler+0x998>)
 80018de:	3350      	adds	r3, #80	@ 0x50
 80018e0:	881e      	ldrh	r6, [r3, #0]
 80018e2:	1840      	adds	r0, r0, r1
 80018e4:	1980      	adds	r0, r0, r6
 80018e6:	1880      	adds	r0, r0, r2
 80018e8:	8806      	ldrh	r6, [r0, #0]
 80018ea:	499d      	ldr	r1, [pc, #628]	@ (8001b60 <HAL_PCD_IRQHandler+0x99c>)
 80018ec:	05b6      	lsls	r6, r6, #22
 80018ee:	0db6      	lsrs	r6, r6, #22
 80018f0:	8006      	strh	r6, [r0, #0]
 80018f2:	8806      	ldrh	r6, [r0, #0]
 80018f4:	430e      	orrs	r6, r1
 80018f6:	b2b6      	uxth	r6, r6
 80018f8:	8006      	strh	r6, [r0, #0]
 80018fa:	881b      	ldrh	r3, [r3, #0]
 80018fc:	4463      	add	r3, ip
 80018fe:	189b      	adds	r3, r3, r2
 8001900:	881a      	ldrh	r2, [r3, #0]
 8001902:	0592      	lsls	r2, r2, #22
 8001904:	0d92      	lsrs	r2, r2, #22
 8001906:	801a      	strh	r2, [r3, #0]
 8001908:	881a      	ldrh	r2, [r3, #0]
 800190a:	430a      	orrs	r2, r1
 800190c:	b292      	uxth	r2, r2
 800190e:	801a      	strh	r2, [r3, #0]
 8001910:	0020      	movs	r0, r4
 8001912:	9902      	ldr	r1, [sp, #8]
 8001914:	f002 fb91 	bl	800403a <HAL_PCD_DataInStageCallback>
 8001918:	2d00      	cmp	r5, #0
 800191a:	d100      	bne.n	800191e <HAL_PCD_IRQHandler+0x75a>
 800191c:	e722      	b.n	8001764 <HAL_PCD_IRQHandler+0x5a0>
 800191e:	2328      	movs	r3, #40	@ 0x28
 8001920:	9a00      	ldr	r2, [sp, #0]
 8001922:	4353      	muls	r3, r2
 8001924:	18e3      	adds	r3, r4, r3
 8001926:	7c1b      	ldrb	r3, [r3, #16]
 8001928:	6822      	ldr	r2, [r4, #0]
 800192a:	009b      	lsls	r3, r3, #2
 800192c:	18d2      	adds	r2, r2, r3
 800192e:	8811      	ldrh	r1, [r2, #0]
 8001930:	4b8c      	ldr	r3, [pc, #560]	@ (8001b64 <HAL_PCD_IRQHandler+0x9a0>)
 8001932:	4019      	ands	r1, r3
 8001934:	2330      	movs	r3, #48	@ 0x30
 8001936:	404b      	eors	r3, r1
 8001938:	498b      	ldr	r1, [pc, #556]	@ (8001b68 <HAL_PCD_IRQHandler+0x9a4>)
 800193a:	430b      	orrs	r3, r1
 800193c:	8013      	strh	r3, [r2, #0]
 800193e:	f7ff fc4f 	bl	80011e0 <HAL_PCD_IRQHandler+0x1c>
 8001942:	2b01      	cmp	r3, #1
 8001944:	d1e4      	bne.n	8001910 <HAL_PCD_IRQHandler+0x74c>
 8001946:	0003      	movs	r3, r0
 8001948:	4984      	ldr	r1, [pc, #528]	@ (8001b5c <HAL_PCD_IRQHandler+0x998>)
 800194a:	3350      	adds	r3, #80	@ 0x50
 800194c:	881e      	ldrh	r6, [r3, #0]
 800194e:	1840      	adds	r0, r0, r1
 8001950:	1980      	adds	r0, r0, r6
 8001952:	1880      	adds	r0, r0, r2
 8001954:	8007      	strh	r7, [r0, #0]
 8001956:	881b      	ldrh	r3, [r3, #0]
 8001958:	4463      	add	r3, ip
 800195a:	189b      	adds	r3, r3, r2
 800195c:	801f      	strh	r7, [r3, #0]
 800195e:	e7d7      	b.n	8001910 <HAL_PCD_IRQHandler+0x74c>
 8001960:	2900      	cmp	r1, #0
 8001962:	d108      	bne.n	8001976 <HAL_PCD_IRQHandler+0x7b2>
 8001964:	9902      	ldr	r1, [sp, #8]
 8001966:	4d81      	ldr	r5, [pc, #516]	@ (8001b6c <HAL_PCD_IRQHandler+0x9a8>)
 8001968:	0089      	lsls	r1, r1, #2
 800196a:	1841      	adds	r1, r0, r1
 800196c:	880f      	ldrh	r7, [r1, #0]
 800196e:	403d      	ands	r5, r7
 8001970:	4f7f      	ldr	r7, [pc, #508]	@ (8001b70 <HAL_PCD_IRQHandler+0x9ac>)
 8001972:	433d      	orrs	r5, r7
 8001974:	800d      	strh	r5, [r1, #0]
 8001976:	2728      	movs	r7, #40	@ 0x28
 8001978:	9900      	ldr	r1, [sp, #0]
 800197a:	434f      	muls	r7, r1
 800197c:	19e7      	adds	r7, r4, r7
 800197e:	0039      	movs	r1, r7
 8001980:	3134      	adds	r1, #52	@ 0x34
 8001982:	9101      	str	r1, [sp, #4]
 8001984:	7809      	ldrb	r1, [r1, #0]
 8001986:	2901      	cmp	r1, #1
 8001988:	d1c9      	bne.n	800191e <HAL_PCD_IRQHandler+0x75a>
 800198a:	6a79      	ldr	r1, [r7, #36]	@ 0x24
 800198c:	1989      	adds	r1, r1, r6
 800198e:	6279      	str	r1, [r7, #36]	@ 0x24
 8001990:	6add      	ldr	r5, [r3, #44]	@ 0x2c
 8001992:	19ad      	adds	r5, r5, r6
 8001994:	62dd      	str	r5, [r3, #44]	@ 0x2c
 8001996:	6b3b      	ldr	r3, [r7, #48]	@ 0x30
 8001998:	6a3d      	ldr	r5, [r7, #32]
 800199a:	42ab      	cmp	r3, r5
 800199c:	d317      	bcc.n	80019ce <HAL_PCD_IRQHandler+0x80a>
 800199e:	1b5b      	subs	r3, r3, r5
 80019a0:	633b      	str	r3, [r7, #48]	@ 0x30
 80019a2:	2328      	movs	r3, #40	@ 0x28
 80019a4:	9e00      	ldr	r6, [sp, #0]
 80019a6:	4373      	muls	r3, r6
 80019a8:	18e3      	adds	r3, r4, r3
 80019aa:	7c5e      	ldrb	r6, [r3, #17]
 80019ac:	b2ab      	uxth	r3, r5
 80019ae:	2e00      	cmp	r6, #0
 80019b0:	d134      	bne.n	8001a1c <HAL_PCD_IRQHandler+0x858>
 80019b2:	0006      	movs	r6, r0
 80019b4:	3650      	adds	r6, #80	@ 0x50
 80019b6:	8836      	ldrh	r6, [r6, #0]
 80019b8:	4466      	add	r6, ip
 80019ba:	18b2      	adds	r2, r6, r2
 80019bc:	8816      	ldrh	r6, [r2, #0]
 80019be:	05b6      	lsls	r6, r6, #22
 80019c0:	0db6      	lsrs	r6, r6, #22
 80019c2:	8016      	strh	r6, [r2, #0]
 80019c4:	2d00      	cmp	r5, #0
 80019c6:	d10e      	bne.n	80019e6 <HAL_PCD_IRQHandler+0x822>
 80019c8:	8815      	ldrh	r5, [r2, #0]
 80019ca:	4e65      	ldr	r6, [pc, #404]	@ (8001b60 <HAL_PCD_IRQHandler+0x99c>)
 80019cc:	e013      	b.n	80019f6 <HAL_PCD_IRQHandler+0x832>
 80019ce:	2b00      	cmp	r3, #0
 80019d0:	d103      	bne.n	80019da <HAL_PCD_IRQHandler+0x816>
 80019d2:	9d01      	ldr	r5, [sp, #4]
 80019d4:	702b      	strb	r3, [r5, #0]
 80019d6:	0035      	movs	r5, r6
 80019d8:	e7e3      	b.n	80019a2 <HAL_PCD_IRQHandler+0x7de>
 80019da:	2500      	movs	r5, #0
 80019dc:	9e01      	ldr	r6, [sp, #4]
 80019de:	633d      	str	r5, [r7, #48]	@ 0x30
 80019e0:	7035      	strb	r5, [r6, #0]
 80019e2:	001d      	movs	r5, r3
 80019e4:	e7dd      	b.n	80019a2 <HAL_PCD_IRQHandler+0x7de>
 80019e6:	2d3e      	cmp	r5, #62	@ 0x3e
 80019e8:	d80e      	bhi.n	8001a08 <HAL_PCD_IRQHandler+0x844>
 80019ea:	2701      	movs	r7, #1
 80019ec:	086e      	lsrs	r6, r5, #1
 80019ee:	402f      	ands	r7, r5
 80019f0:	19f6      	adds	r6, r6, r7
 80019f2:	8815      	ldrh	r5, [r2, #0]
 80019f4:	02b6      	lsls	r6, r6, #10
 80019f6:	4335      	orrs	r5, r6
 80019f8:	b2ad      	uxth	r5, r5
 80019fa:	8015      	strh	r5, [r2, #0]
 80019fc:	2228      	movs	r2, #40	@ 0x28
 80019fe:	9d00      	ldr	r5, [sp, #0]
 8001a00:	436a      	muls	r2, r5
 8001a02:	18a2      	adds	r2, r4, r2
 8001a04:	8b52      	ldrh	r2, [r2, #26]
 8001a06:	e727      	b.n	8001858 <HAL_PCD_IRQHandler+0x694>
 8001a08:	271f      	movs	r7, #31
 8001a0a:	096e      	lsrs	r6, r5, #5
 8001a0c:	403d      	ands	r5, r7
 8001a0e:	426f      	negs	r7, r5
 8001a10:	417d      	adcs	r5, r7
 8001a12:	1b76      	subs	r6, r6, r5
 8001a14:	8815      	ldrh	r5, [r2, #0]
 8001a16:	02b6      	lsls	r6, r6, #10
 8001a18:	4335      	orrs	r5, r6
 8001a1a:	e7d6      	b.n	80019ca <HAL_PCD_IRQHandler+0x806>
 8001a1c:	2e01      	cmp	r6, #1
 8001a1e:	d1ed      	bne.n	80019fc <HAL_PCD_IRQHandler+0x838>
 8001a20:	0005      	movs	r5, r0
 8001a22:	3550      	adds	r5, #80	@ 0x50
 8001a24:	882d      	ldrh	r5, [r5, #0]
 8001a26:	4465      	add	r5, ip
 8001a28:	18aa      	adds	r2, r5, r2
 8001a2a:	8013      	strh	r3, [r2, #0]
 8001a2c:	e7e6      	b.n	80019fc <HAL_PCD_IRQHandler+0x838>
 8001a2e:	0543      	lsls	r3, r0, #21
 8001a30:	d50e      	bpl.n	8001a50 <HAL_PCD_IRQHandler+0x88c>
 8001a32:	6823      	ldr	r3, [r4, #0]
 8001a34:	494f      	ldr	r1, [pc, #316]	@ (8001b74 <HAL_PCD_IRQHandler+0x9b0>)
 8001a36:	3306      	adds	r3, #6
 8001a38:	8fda      	ldrh	r2, [r3, #62]	@ 0x3e
 8001a3a:	0020      	movs	r0, r4
 8001a3c:	400a      	ands	r2, r1
 8001a3e:	87da      	strh	r2, [r3, #62]	@ 0x3e
 8001a40:	f002 fb0d 	bl	800405e <HAL_PCD_ResetCallback>
 8001a44:	0029      	movs	r1, r5
 8001a46:	0020      	movs	r0, r4
 8001a48:	f7ff fbab 	bl	80011a2 <HAL_PCD_SetAddress>
 8001a4c:	f7ff fbce 	bl	80011ec <HAL_PCD_IRQHandler+0x28>
 8001a50:	0443      	lsls	r3, r0, #17
 8001a52:	d507      	bpl.n	8001a64 <HAL_PCD_IRQHandler+0x8a0>
 8001a54:	6823      	ldr	r3, [r4, #0]
 8001a56:	4948      	ldr	r1, [pc, #288]	@ (8001b78 <HAL_PCD_IRQHandler+0x9b4>)
 8001a58:	3306      	adds	r3, #6
 8001a5a:	8fda      	ldrh	r2, [r3, #62]	@ 0x3e
 8001a5c:	400a      	ands	r2, r1
 8001a5e:	87da      	strh	r2, [r3, #62]	@ 0x3e
 8001a60:	f7ff fbc4 	bl	80011ec <HAL_PCD_IRQHandler+0x28>
 8001a64:	2380      	movs	r3, #128	@ 0x80
 8001a66:	0001      	movs	r1, r0
 8001a68:	019b      	lsls	r3, r3, #6
 8001a6a:	4019      	ands	r1, r3
 8001a6c:	4218      	tst	r0, r3
 8001a6e:	d004      	beq.n	8001a7a <HAL_PCD_IRQHandler+0x8b6>
 8001a70:	6823      	ldr	r3, [r4, #0]
 8001a72:	4942      	ldr	r1, [pc, #264]	@ (8001b7c <HAL_PCD_IRQHandler+0x9b8>)
 8001a74:	3306      	adds	r3, #6
 8001a76:	8fda      	ldrh	r2, [r3, #62]	@ 0x3e
 8001a78:	e7f0      	b.n	8001a5c <HAL_PCD_IRQHandler+0x898>
 8001a7a:	04c3      	lsls	r3, r0, #19
 8001a7c:	d51a      	bpl.n	8001ab4 <HAL_PCD_IRQHandler+0x8f0>
 8001a7e:	2004      	movs	r0, #4
 8001a80:	6823      	ldr	r3, [r4, #0]
 8001a82:	3302      	adds	r3, #2
 8001a84:	8fda      	ldrh	r2, [r3, #62]	@ 0x3e
 8001a86:	4382      	bics	r2, r0
 8001a88:	87da      	strh	r2, [r3, #62]	@ 0x3e
 8001a8a:	8fda      	ldrh	r2, [r3, #62]	@ 0x3e
 8001a8c:	1800      	adds	r0, r0, r0
 8001a8e:	4382      	bics	r2, r0
 8001a90:	87da      	strh	r2, [r3, #62]	@ 0x3e
 8001a92:	23b2      	movs	r3, #178	@ 0xb2
 8001a94:	009b      	lsls	r3, r3, #2
 8001a96:	5ce2      	ldrb	r2, [r4, r3]
 8001a98:	2a01      	cmp	r2, #1
 8001a9a:	d103      	bne.n	8001aa4 <HAL_PCD_IRQHandler+0x8e0>
 8001a9c:	0020      	movs	r0, r4
 8001a9e:	54e1      	strb	r1, [r4, r3]
 8001aa0:	f000 f98b 	bl	8001dba <HAL_PCDEx_LPM_Callback>
 8001aa4:	0020      	movs	r0, r4
 8001aa6:	f002 fafd 	bl	80040a4 <HAL_PCD_ResumeCallback>
 8001aaa:	6823      	ldr	r3, [r4, #0]
 8001aac:	4934      	ldr	r1, [pc, #208]	@ (8001b80 <HAL_PCD_IRQHandler+0x9bc>)
 8001aae:	3306      	adds	r3, #6
 8001ab0:	8fda      	ldrh	r2, [r3, #62]	@ 0x3e
 8001ab2:	e7d3      	b.n	8001a5c <HAL_PCD_IRQHandler+0x898>
 8001ab4:	0503      	lsls	r3, r0, #20
 8001ab6:	d513      	bpl.n	8001ae0 <HAL_PCD_IRQHandler+0x91c>
 8001ab8:	2108      	movs	r1, #8
 8001aba:	6823      	ldr	r3, [r4, #0]
 8001abc:	1c9a      	adds	r2, r3, #2
 8001abe:	8fd0      	ldrh	r0, [r2, #62]	@ 0x3e
 8001ac0:	3306      	adds	r3, #6
 8001ac2:	4301      	orrs	r1, r0
 8001ac4:	87d1      	strh	r1, [r2, #62]	@ 0x3e
 8001ac6:	8fd9      	ldrh	r1, [r3, #62]	@ 0x3e
 8001ac8:	482e      	ldr	r0, [pc, #184]	@ (8001b84 <HAL_PCD_IRQHandler+0x9c0>)
 8001aca:	4001      	ands	r1, r0
 8001acc:	87d9      	strh	r1, [r3, #62]	@ 0x3e
 8001ace:	2304      	movs	r3, #4
 8001ad0:	8fd1      	ldrh	r1, [r2, #62]	@ 0x3e
 8001ad2:	430b      	orrs	r3, r1
 8001ad4:	87d3      	strh	r3, [r2, #62]	@ 0x3e
 8001ad6:	0020      	movs	r0, r4
 8001ad8:	f002 fad2 	bl	8004080 <HAL_PCD_SuspendCallback>
 8001adc:	f7ff fb86 	bl	80011ec <HAL_PCD_IRQHandler+0x28>
 8001ae0:	2580      	movs	r5, #128	@ 0x80
 8001ae2:	4228      	tst	r0, r5
 8001ae4:	d021      	beq.n	8001b2a <HAL_PCD_IRQHandler+0x966>
 8001ae6:	20b2      	movs	r0, #178	@ 0xb2
 8001ae8:	6823      	ldr	r3, [r4, #0]
 8001aea:	0080      	lsls	r0, r0, #2
 8001aec:	1d99      	adds	r1, r3, #6
 8001aee:	8fca      	ldrh	r2, [r1, #62]	@ 0x3e
 8001af0:	43aa      	bics	r2, r5
 8001af2:	87ca      	strh	r2, [r1, #62]	@ 0x3e
 8001af4:	5c22      	ldrb	r2, [r4, r0]
 8001af6:	2a00      	cmp	r2, #0
 8001af8:	d1ed      	bne.n	8001ad6 <HAL_PCD_IRQHandler+0x912>
 8001afa:	2104      	movs	r1, #4
 8001afc:	1c9a      	adds	r2, r3, #2
 8001afe:	8fd5      	ldrh	r5, [r2, #62]	@ 0x3e
 8001b00:	3354      	adds	r3, #84	@ 0x54
 8001b02:	4329      	orrs	r1, r5
 8001b04:	87d1      	strh	r1, [r2, #62]	@ 0x3e
 8001b06:	2108      	movs	r1, #8
 8001b08:	8fd5      	ldrh	r5, [r2, #62]	@ 0x3e
 8001b0a:	4329      	orrs	r1, r5
 8001b0c:	87d1      	strh	r1, [r2, #62]	@ 0x3e
 8001b0e:	2101      	movs	r1, #1
 8001b10:	223c      	movs	r2, #60	@ 0x3c
 8001b12:	5421      	strb	r1, [r4, r0]
 8001b14:	881b      	ldrh	r3, [r3, #0]
 8001b16:	0020      	movs	r0, r4
 8001b18:	089b      	lsrs	r3, r3, #2
 8001b1a:	4013      	ands	r3, r2
 8001b1c:	22b3      	movs	r2, #179	@ 0xb3
 8001b1e:	0092      	lsls	r2, r2, #2
 8001b20:	50a3      	str	r3, [r4, r2]
 8001b22:	f000 f94a 	bl	8001dba <HAL_PCDEx_LPM_Callback>
 8001b26:	f7ff fb61 	bl	80011ec <HAL_PCD_IRQHandler+0x28>
 8001b2a:	0583      	lsls	r3, r0, #22
 8001b2c:	d50a      	bpl.n	8001b44 <HAL_PCD_IRQHandler+0x980>
 8001b2e:	6823      	ldr	r3, [r4, #0]
 8001b30:	4915      	ldr	r1, [pc, #84]	@ (8001b88 <HAL_PCD_IRQHandler+0x9c4>)
 8001b32:	3306      	adds	r3, #6
 8001b34:	8fda      	ldrh	r2, [r3, #62]	@ 0x3e
 8001b36:	0020      	movs	r0, r4
 8001b38:	400a      	ands	r2, r1
 8001b3a:	87da      	strh	r2, [r3, #62]	@ 0x3e
 8001b3c:	f002 fa88 	bl	8004050 <HAL_PCD_SOFCallback>
 8001b40:	f7ff fb54 	bl	80011ec <HAL_PCD_IRQHandler+0x28>
 8001b44:	05c0      	lsls	r0, r0, #23
 8001b46:	d401      	bmi.n	8001b4c <HAL_PCD_IRQHandler+0x988>
 8001b48:	f7ff fb50 	bl	80011ec <HAL_PCD_IRQHandler+0x28>
 8001b4c:	6823      	ldr	r3, [r4, #0]
 8001b4e:	490f      	ldr	r1, [pc, #60]	@ (8001b8c <HAL_PCD_IRQHandler+0x9c8>)
 8001b50:	3306      	adds	r3, #6
 8001b52:	8fda      	ldrh	r2, [r3, #62]	@ 0x3e
 8001b54:	e782      	b.n	8001a5c <HAL_PCD_IRQHandler+0x898>
 8001b56:	46c0      	nop			@ (mov r8, r8)
 8001b58:	00000406 	.word	0x00000406
 8001b5c:	00000402 	.word	0x00000402
 8001b60:	ffff8000 	.word	0xffff8000
 8001b64:	ffff8fbf 	.word	0xffff8fbf
 8001b68:	00008080 	.word	0x00008080
 8001b6c:	ffff8f8f 	.word	0xffff8f8f
 8001b70:	0000c080 	.word	0x0000c080
 8001b74:	fffffbff 	.word	0xfffffbff
 8001b78:	ffffbfff 	.word	0xffffbfff
 8001b7c:	ffffdfff 	.word	0xffffdfff
 8001b80:	ffffefff 	.word	0xffffefff
 8001b84:	fffff7ff 	.word	0xfffff7ff
 8001b88:	fffffdff 	.word	0xfffffdff
 8001b8c:	fffffeff 	.word	0xfffffeff

08001b90 <HAL_PCD_EP_Open>:
 8001b90:	b570      	push	{r4, r5, r6, lr}
 8001b92:	0004      	movs	r4, r0
 8001b94:	2007      	movs	r0, #7
 8001b96:	000d      	movs	r5, r1
 8001b98:	4008      	ands	r0, r1
 8001b9a:	2128      	movs	r1, #40	@ 0x28
 8001b9c:	4341      	muls	r1, r0
 8001b9e:	b26d      	sxtb	r5, r5
 8001ba0:	1866      	adds	r6, r4, r1
 8001ba2:	2d00      	cmp	r5, #0
 8001ba4:	da18      	bge.n	8001bd8 <HAL_PCD_EP_Open+0x48>
 8001ba6:	2501      	movs	r5, #1
 8001ba8:	3110      	adds	r1, #16
 8001baa:	1861      	adds	r1, r4, r1
 8001bac:	7475      	strb	r5, [r6, #17]
 8001bae:	7008      	strb	r0, [r1, #0]
 8001bb0:	610a      	str	r2, [r1, #16]
 8001bb2:	70cb      	strb	r3, [r1, #3]
 8001bb4:	2b02      	cmp	r3, #2
 8001bb6:	d101      	bne.n	8001bbc <HAL_PCD_EP_Open+0x2c>
 8001bb8:	2300      	movs	r3, #0
 8001bba:	710b      	strb	r3, [r1, #4]
 8001bbc:	25a4      	movs	r5, #164	@ 0xa4
 8001bbe:	00ad      	lsls	r5, r5, #2
 8001bc0:	5d63      	ldrb	r3, [r4, r5]
 8001bc2:	2002      	movs	r0, #2
 8001bc4:	2b01      	cmp	r3, #1
 8001bc6:	d006      	beq.n	8001bd6 <HAL_PCD_EP_Open+0x46>
 8001bc8:	2301      	movs	r3, #1
 8001bca:	5563      	strb	r3, [r4, r5]
 8001bcc:	6820      	ldr	r0, [r4, #0]
 8001bce:	f000 ff49 	bl	8002a64 <USB_ActivateEndpoint>
 8001bd2:	2000      	movs	r0, #0
 8001bd4:	5560      	strb	r0, [r4, r5]
 8001bd6:	bd70      	pop	{r4, r5, r6, pc}
 8001bd8:	2500      	movs	r5, #0
 8001bda:	3151      	adds	r1, #81	@ 0x51
 8001bdc:	3652      	adds	r6, #82	@ 0x52
 8001bde:	31ff      	adds	r1, #255	@ 0xff
 8001be0:	36ff      	adds	r6, #255	@ 0xff
 8001be2:	1861      	adds	r1, r4, r1
 8001be4:	7035      	strb	r5, [r6, #0]
 8001be6:	e7e2      	b.n	8001bae <HAL_PCD_EP_Open+0x1e>

08001be8 <HAL_PCD_EP_Close>:
 8001be8:	2207      	movs	r2, #7
 8001bea:	000b      	movs	r3, r1
 8001bec:	400a      	ands	r2, r1
 8001bee:	2128      	movs	r1, #40	@ 0x28
 8001bf0:	4351      	muls	r1, r2
 8001bf2:	b25b      	sxtb	r3, r3
 8001bf4:	b570      	push	{r4, r5, r6, lr}
 8001bf6:	0004      	movs	r4, r0
 8001bf8:	1840      	adds	r0, r0, r1
 8001bfa:	2b00      	cmp	r3, #0
 8001bfc:	da12      	bge.n	8001c24 <HAL_PCD_EP_Close+0x3c>
 8001bfe:	2301      	movs	r3, #1
 8001c00:	3110      	adds	r1, #16
 8001c02:	1861      	adds	r1, r4, r1
 8001c04:	7443      	strb	r3, [r0, #17]
 8001c06:	25a4      	movs	r5, #164	@ 0xa4
 8001c08:	700a      	strb	r2, [r1, #0]
 8001c0a:	00ad      	lsls	r5, r5, #2
 8001c0c:	5d63      	ldrb	r3, [r4, r5]
 8001c0e:	2002      	movs	r0, #2
 8001c10:	2b01      	cmp	r3, #1
 8001c12:	d006      	beq.n	8001c22 <HAL_PCD_EP_Close+0x3a>
 8001c14:	2301      	movs	r3, #1
 8001c16:	5563      	strb	r3, [r4, r5]
 8001c18:	6820      	ldr	r0, [r4, #0]
 8001c1a:	f001 f833 	bl	8002c84 <USB_DeactivateEndpoint>
 8001c1e:	2000      	movs	r0, #0
 8001c20:	5560      	strb	r0, [r4, r5]
 8001c22:	bd70      	pop	{r4, r5, r6, pc}
 8001c24:	2300      	movs	r3, #0
 8001c26:	3151      	adds	r1, #81	@ 0x51
 8001c28:	3052      	adds	r0, #82	@ 0x52
 8001c2a:	31ff      	adds	r1, #255	@ 0xff
 8001c2c:	30ff      	adds	r0, #255	@ 0xff
 8001c2e:	1861      	adds	r1, r4, r1
 8001c30:	7003      	strb	r3, [r0, #0]
 8001c32:	e7e8      	b.n	8001c06 <HAL_PCD_EP_Close+0x1e>

08001c34 <HAL_PCD_EP_Receive>:
 8001c34:	b5f8      	push	{r3, r4, r5, r6, r7, lr}
 8001c36:	2407      	movs	r4, #7
 8001c38:	4021      	ands	r1, r4
 8001c3a:	3421      	adds	r4, #33	@ 0x21
 8001c3c:	434c      	muls	r4, r1
 8001c3e:	1906      	adds	r6, r0, r4
 8001c40:	0037      	movs	r7, r6
 8001c42:	37fc      	adds	r7, #252	@ 0xfc
 8001c44:	66fb      	str	r3, [r7, #108]	@ 0x6c
 8001c46:	0033      	movs	r3, r6
 8001c48:	2500      	movs	r5, #0
 8001c4a:	3352      	adds	r3, #82	@ 0x52
 8001c4c:	3651      	adds	r6, #81	@ 0x51
 8001c4e:	3451      	adds	r4, #81	@ 0x51
 8001c50:	33ff      	adds	r3, #255	@ 0xff
 8001c52:	36ff      	adds	r6, #255	@ 0xff
 8001c54:	34ff      	adds	r4, #255	@ 0xff
 8001c56:	673d      	str	r5, [r7, #112]	@ 0x70
 8001c58:	66ba      	str	r2, [r7, #104]	@ 0x68
 8001c5a:	701d      	strb	r5, [r3, #0]
 8001c5c:	7031      	strb	r1, [r6, #0]
 8001c5e:	1901      	adds	r1, r0, r4
 8001c60:	6800      	ldr	r0, [r0, #0]
 8001c62:	f001 f90b 	bl	8002e7c <USB_EPStartXfer>
 8001c66:	0028      	movs	r0, r5
 8001c68:	bdf8      	pop	{r3, r4, r5, r6, r7, pc}

08001c6a <HAL_PCD_EP_GetRxCount>:
 8001c6a:	2307      	movs	r3, #7
 8001c6c:	400b      	ands	r3, r1
 8001c6e:	2128      	movs	r1, #40	@ 0x28
 8001c70:	4359      	muls	r1, r3
 8001c72:	1840      	adds	r0, r0, r1
 8001c74:	30fc      	adds	r0, #252	@ 0xfc
 8001c76:	6f00      	ldr	r0, [r0, #112]	@ 0x70
 8001c78:	4770      	bx	lr

08001c7a <HAL_PCD_EP_Transmit>:
 8001c7a:	b570      	push	{r4, r5, r6, lr}
 8001c7c:	2407      	movs	r4, #7
 8001c7e:	4021      	ands	r1, r4
 8001c80:	3421      	adds	r4, #33	@ 0x21
 8001c82:	434c      	muls	r4, r1
 8001c84:	1906      	adds	r6, r0, r4
 8001c86:	0035      	movs	r5, r6
 8001c88:	6272      	str	r2, [r6, #36]	@ 0x24
 8001c8a:	2201      	movs	r2, #1
 8001c8c:	3534      	adds	r5, #52	@ 0x34
 8001c8e:	62b3      	str	r3, [r6, #40]	@ 0x28
 8001c90:	702a      	strb	r2, [r5, #0]
 8001c92:	2500      	movs	r5, #0
 8001c94:	3410      	adds	r4, #16
 8001c96:	62f5      	str	r5, [r6, #44]	@ 0x2c
 8001c98:	7431      	strb	r1, [r6, #16]
 8001c9a:	6333      	str	r3, [r6, #48]	@ 0x30
 8001c9c:	7472      	strb	r2, [r6, #17]
 8001c9e:	1901      	adds	r1, r0, r4
 8001ca0:	6800      	ldr	r0, [r0, #0]
 8001ca2:	f001 f8eb 	bl	8002e7c <USB_EPStartXfer>
 8001ca6:	0028      	movs	r0, r5
 8001ca8:	bd70      	pop	{r4, r5, r6, pc}

08001caa <HAL_PCD_EP_SetStall>:
 8001caa:	2207      	movs	r2, #7
 8001cac:	b570      	push	{r4, r5, r6, lr}
 8001cae:	7903      	ldrb	r3, [r0, #4]
 8001cb0:	0004      	movs	r4, r0
 8001cb2:	400a      	ands	r2, r1
 8001cb4:	2001      	movs	r0, #1
 8001cb6:	4293      	cmp	r3, r2
 8001cb8:	d319      	bcc.n	8001cee <HAL_PCD_EP_SetStall+0x44>
 8001cba:	b248      	sxtb	r0, r1
 8001cbc:	2328      	movs	r3, #40	@ 0x28
 8001cbe:	2800      	cmp	r0, #0
 8001cc0:	da16      	bge.n	8001cf0 <HAL_PCD_EP_SetStall+0x46>
 8001cc2:	4353      	muls	r3, r2
 8001cc4:	0019      	movs	r1, r3
 8001cc6:	2001      	movs	r0, #1
 8001cc8:	3110      	adds	r1, #16
 8001cca:	18e3      	adds	r3, r4, r3
 8001ccc:	1861      	adds	r1, r4, r1
 8001cce:	7458      	strb	r0, [r3, #17]
 8001cd0:	2301      	movs	r3, #1
 8001cd2:	25a4      	movs	r5, #164	@ 0xa4
 8001cd4:	708b      	strb	r3, [r1, #2]
 8001cd6:	700a      	strb	r2, [r1, #0]
 8001cd8:	00ad      	lsls	r5, r5, #2
 8001cda:	5d62      	ldrb	r2, [r4, r5]
 8001cdc:	2002      	movs	r0, #2
 8001cde:	429a      	cmp	r2, r3
 8001ce0:	d005      	beq.n	8001cee <HAL_PCD_EP_SetStall+0x44>
 8001ce2:	5563      	strb	r3, [r4, r5]
 8001ce4:	6820      	ldr	r0, [r4, #0]
 8001ce6:	f001 f847 	bl	8002d78 <USB_EPSetStall>
 8001cea:	2000      	movs	r0, #0
 8001cec:	5560      	strb	r0, [r4, r5]
 8001cee:	bd70      	pop	{r4, r5, r6, pc}
 8001cf0:	434b      	muls	r3, r1
 8001cf2:	0019      	movs	r1, r3
 8001cf4:	2000      	movs	r0, #0
 8001cf6:	18e3      	adds	r3, r4, r3
 8001cf8:	3151      	adds	r1, #81	@ 0x51
 8001cfa:	3352      	adds	r3, #82	@ 0x52
 8001cfc:	31ff      	adds	r1, #255	@ 0xff
 8001cfe:	33ff      	adds	r3, #255	@ 0xff
 8001d00:	1861      	adds	r1, r4, r1
 8001d02:	7018      	strb	r0, [r3, #0]
 8001d04:	e7e4      	b.n	8001cd0 <HAL_PCD_EP_SetStall+0x26>

08001d06 <HAL_PCD_EP_ClrStall>:
 8001d06:	000b      	movs	r3, r1
 8001d08:	220f      	movs	r2, #15
 8001d0a:	b570      	push	{r4, r5, r6, lr}
 8001d0c:	7901      	ldrb	r1, [r0, #4]
 8001d0e:	0004      	movs	r4, r0
 8001d10:	401a      	ands	r2, r3
 8001d12:	2001      	movs	r0, #1
 8001d14:	4291      	cmp	r1, r2
 8001d16:	d31b      	bcc.n	8001d50 <HAL_PCD_EP_ClrStall+0x4a>
 8001d18:	2207      	movs	r2, #7
 8001d1a:	2128      	movs	r1, #40	@ 0x28
 8001d1c:	401a      	ands	r2, r3
 8001d1e:	4351      	muls	r1, r2
 8001d20:	b25b      	sxtb	r3, r3
 8001d22:	1860      	adds	r0, r4, r1
 8001d24:	2b00      	cmp	r3, #0
 8001d26:	da14      	bge.n	8001d52 <HAL_PCD_EP_ClrStall+0x4c>
 8001d28:	2301      	movs	r3, #1
 8001d2a:	3110      	adds	r1, #16
 8001d2c:	1861      	adds	r1, r4, r1
 8001d2e:	7443      	strb	r3, [r0, #17]
 8001d30:	2500      	movs	r5, #0
 8001d32:	26a4      	movs	r6, #164	@ 0xa4
 8001d34:	708d      	strb	r5, [r1, #2]
 8001d36:	700a      	strb	r2, [r1, #0]
 8001d38:	00b6      	lsls	r6, r6, #2
 8001d3a:	5da3      	ldrb	r3, [r4, r6]
 8001d3c:	2002      	movs	r0, #2
 8001d3e:	2b01      	cmp	r3, #1
 8001d40:	d006      	beq.n	8001d50 <HAL_PCD_EP_ClrStall+0x4a>
 8001d42:	2301      	movs	r3, #1
 8001d44:	55a3      	strb	r3, [r4, r6]
 8001d46:	6820      	ldr	r0, [r4, #0]
 8001d48:	f001 f836 	bl	8002db8 <USB_EPClearStall>
 8001d4c:	0028      	movs	r0, r5
 8001d4e:	55a5      	strb	r5, [r4, r6]
 8001d50:	bd70      	pop	{r4, r5, r6, pc}
 8001d52:	2300      	movs	r3, #0
 8001d54:	3151      	adds	r1, #81	@ 0x51
 8001d56:	3052      	adds	r0, #82	@ 0x52
 8001d58:	31ff      	adds	r1, #255	@ 0xff
 8001d5a:	30ff      	adds	r0, #255	@ 0xff
 8001d5c:	1861      	adds	r1, r4, r1
 8001d5e:	7003      	strb	r3, [r0, #0]
 8001d60:	e7e6      	b.n	8001d30 <HAL_PCD_EP_ClrStall+0x2a>

08001d62 <HAL_PCDEx_PMAConfig>:
 8001d62:	b530      	push	{r4, r5, lr}
 8001d64:	2428      	movs	r4, #40	@ 0x28
 8001d66:	060d      	lsls	r5, r1, #24
 8001d68:	d50b      	bpl.n	8001d82 <HAL_PCDEx_PMAConfig+0x20>
 8001d6a:	2507      	movs	r5, #7
 8001d6c:	4029      	ands	r1, r5
 8001d6e:	434c      	muls	r4, r1
 8001d70:	3410      	adds	r4, #16
 8001d72:	1900      	adds	r0, r0, r4
 8001d74:	b299      	uxth	r1, r3
 8001d76:	2a00      	cmp	r2, #0
 8001d78:	d107      	bne.n	8001d8a <HAL_PCDEx_PMAConfig+0x28>
 8001d7a:	7302      	strb	r2, [r0, #12]
 8001d7c:	80c1      	strh	r1, [r0, #6]
 8001d7e:	2000      	movs	r0, #0
 8001d80:	bd30      	pop	{r4, r5, pc}
 8001d82:	434c      	muls	r4, r1
 8001d84:	3451      	adds	r4, #81	@ 0x51
 8001d86:	34ff      	adds	r4, #255	@ 0xff
 8001d88:	e7f3      	b.n	8001d72 <HAL_PCDEx_PMAConfig+0x10>
 8001d8a:	2201      	movs	r2, #1
 8001d8c:	6083      	str	r3, [r0, #8]
 8001d8e:	7302      	strb	r2, [r0, #12]
 8001d90:	e7f5      	b.n	8001d7e <HAL_PCDEx_PMAConfig+0x1c>

08001d92 <HAL_PCDEx_ActivateLPM>:
 8001d92:	6803      	ldr	r3, [r0, #0]
 8001d94:	0002      	movs	r2, r0
 8001d96:	20b4      	movs	r0, #180	@ 0xb4
 8001d98:	2101      	movs	r1, #1
 8001d9a:	b510      	push	{r4, lr}
 8001d9c:	0080      	lsls	r0, r0, #2
 8001d9e:	24b2      	movs	r4, #178	@ 0xb2
 8001da0:	5011      	str	r1, [r2, r0]
 8001da2:	2000      	movs	r0, #0
 8001da4:	00a4      	lsls	r4, r4, #2
 8001da6:	5510      	strb	r0, [r2, r4]
 8001da8:	3354      	adds	r3, #84	@ 0x54
 8001daa:	881a      	ldrh	r2, [r3, #0]
 8001dac:	4311      	orrs	r1, r2
 8001dae:	2202      	movs	r2, #2
 8001db0:	8019      	strh	r1, [r3, #0]
 8001db2:	8819      	ldrh	r1, [r3, #0]
 8001db4:	430a      	orrs	r2, r1
 8001db6:	801a      	strh	r2, [r3, #0]
 8001db8:	bd10      	pop	{r4, pc}

08001dba <HAL_PCDEx_LPM_Callback>:
 8001dba:	4770      	bx	lr

08001dbc <HAL_RCC_OscConfig>:
 8001dbc:	b5f0      	push	{r4, r5, r6, r7, lr}
 8001dbe:	0004      	movs	r4, r0
 8001dc0:	b085      	sub	sp, #20
 8001dc2:	2800      	cmp	r0, #0
 8001dc4:	d102      	bne.n	8001dcc <HAL_RCC_OscConfig+0x10>
 8001dc6:	2001      	movs	r0, #1
 8001dc8:	b005      	add	sp, #20
 8001dca:	bdf0      	pop	{r4, r5, r6, r7, pc}
 8001dcc:	6803      	ldr	r3, [r0, #0]
 8001dce:	07db      	lsls	r3, r3, #31
 8001dd0:	d433      	bmi.n	8001e3a <HAL_RCC_OscConfig+0x7e>
 8001dd2:	6823      	ldr	r3, [r4, #0]
 8001dd4:	079b      	lsls	r3, r3, #30
 8001dd6:	d500      	bpl.n	8001dda <HAL_RCC_OscConfig+0x1e>
 8001dd8:	e087      	b.n	8001eea <HAL_RCC_OscConfig+0x12e>
 8001dda:	6823      	ldr	r3, [r4, #0]
 8001ddc:	071b      	lsls	r3, r3, #28
 8001dde:	d500      	bpl.n	8001de2 <HAL_RCC_OscConfig+0x26>
 8001de0:	e0c8      	b.n	8001f74 <HAL_RCC_OscConfig+0x1b8>
 8001de2:	6823      	ldr	r3, [r4, #0]
 8001de4:	075b      	lsls	r3, r3, #29
 8001de6:	d500      	bpl.n	8001dea <HAL_RCC_OscConfig+0x2e>
 8001de8:	e0eb      	b.n	8001fc2 <HAL_RCC_OscConfig+0x206>
 8001dea:	6823      	ldr	r3, [r4, #0]
 8001dec:	06db      	lsls	r3, r3, #27
 8001dee:	d51a      	bpl.n	8001e26 <HAL_RCC_OscConfig+0x6a>
 8001df0:	6962      	ldr	r2, [r4, #20]
 8001df2:	2304      	movs	r3, #4
 8001df4:	4db9      	ldr	r5, [pc, #740]	@ (80020dc <HAL_RCC_OscConfig+0x320>)
 8001df6:	2a01      	cmp	r2, #1
 8001df8:	d000      	beq.n	8001dfc <HAL_RCC_OscConfig+0x40>
 8001dfa:	e154      	b.n	80020a6 <HAL_RCC_OscConfig+0x2ea>
 8001dfc:	6b69      	ldr	r1, [r5, #52]	@ 0x34
 8001dfe:	2702      	movs	r7, #2
 8001e00:	430b      	orrs	r3, r1
 8001e02:	636b      	str	r3, [r5, #52]	@ 0x34
 8001e04:	6b6b      	ldr	r3, [r5, #52]	@ 0x34
 8001e06:	431a      	orrs	r2, r3
 8001e08:	636a      	str	r2, [r5, #52]	@ 0x34
 8001e0a:	f7fe fd2f 	bl	800086c <HAL_GetTick>
 8001e0e:	0006      	movs	r6, r0
 8001e10:	6b6b      	ldr	r3, [r5, #52]	@ 0x34
 8001e12:	423b      	tst	r3, r7
 8001e14:	d100      	bne.n	8001e18 <HAL_RCC_OscConfig+0x5c>
 8001e16:	e13f      	b.n	8002098 <HAL_RCC_OscConfig+0x2dc>
 8001e18:	21f8      	movs	r1, #248	@ 0xf8
 8001e1a:	6b6a      	ldr	r2, [r5, #52]	@ 0x34
 8001e1c:	69a3      	ldr	r3, [r4, #24]
 8001e1e:	438a      	bics	r2, r1
 8001e20:	00db      	lsls	r3, r3, #3
 8001e22:	4313      	orrs	r3, r2
 8001e24:	636b      	str	r3, [r5, #52]	@ 0x34
 8001e26:	6823      	ldr	r3, [r4, #0]
 8001e28:	069b      	lsls	r3, r3, #26
 8001e2a:	d500      	bpl.n	8001e2e <HAL_RCC_OscConfig+0x72>
 8001e2c:	e162      	b.n	80020f4 <HAL_RCC_OscConfig+0x338>
 8001e2e:	6a63      	ldr	r3, [r4, #36]	@ 0x24
 8001e30:	2b00      	cmp	r3, #0
 8001e32:	d000      	beq.n	8001e36 <HAL_RCC_OscConfig+0x7a>
 8001e34:	e1a1      	b.n	800217a <HAL_RCC_OscConfig+0x3be>
 8001e36:	2000      	movs	r0, #0
 8001e38:	e7c6      	b.n	8001dc8 <HAL_RCC_OscConfig+0xc>
 8001e3a:	220c      	movs	r2, #12
 8001e3c:	4da7      	ldr	r5, [pc, #668]	@ (80020dc <HAL_RCC_OscConfig+0x320>)
 8001e3e:	686b      	ldr	r3, [r5, #4]
 8001e40:	4013      	ands	r3, r2
 8001e42:	2b04      	cmp	r3, #4
 8001e44:	d00b      	beq.n	8001e5e <HAL_RCC_OscConfig+0xa2>
 8001e46:	686b      	ldr	r3, [r5, #4]
 8001e48:	4013      	ands	r3, r2
 8001e4a:	2b08      	cmp	r3, #8
 8001e4c:	d10e      	bne.n	8001e6c <HAL_RCC_OscConfig+0xb0>
 8001e4e:	22c0      	movs	r2, #192	@ 0xc0
 8001e50:	686b      	ldr	r3, [r5, #4]
 8001e52:	0252      	lsls	r2, r2, #9
 8001e54:	4013      	ands	r3, r2
 8001e56:	2280      	movs	r2, #128	@ 0x80
 8001e58:	0252      	lsls	r2, r2, #9
 8001e5a:	4293      	cmp	r3, r2
 8001e5c:	d106      	bne.n	8001e6c <HAL_RCC_OscConfig+0xb0>
 8001e5e:	682b      	ldr	r3, [r5, #0]
 8001e60:	039b      	lsls	r3, r3, #14
 8001e62:	d5b6      	bpl.n	8001dd2 <HAL_RCC_OscConfig+0x16>
 8001e64:	6863      	ldr	r3, [r4, #4]
 8001e66:	2b00      	cmp	r3, #0
 8001e68:	d1b3      	bne.n	8001dd2 <HAL_RCC_OscConfig+0x16>
 8001e6a:	e7ac      	b.n	8001dc6 <HAL_RCC_OscConfig+0xa>
 8001e6c:	6863      	ldr	r3, [r4, #4]
 8001e6e:	2b01      	cmp	r3, #1
 8001e70:	d113      	bne.n	8001e9a <HAL_RCC_OscConfig+0xde>
 8001e72:	2380      	movs	r3, #128	@ 0x80
 8001e74:	682a      	ldr	r2, [r5, #0]
 8001e76:	025b      	lsls	r3, r3, #9
 8001e78:	4313      	orrs	r3, r2
 8001e7a:	602b      	str	r3, [r5, #0]
 8001e7c:	f7fe fcf6 	bl	800086c <HAL_GetTick>
 8001e80:	2780      	movs	r7, #128	@ 0x80
 8001e82:	0006      	movs	r6, r0
 8001e84:	02bf      	lsls	r7, r7, #10
 8001e86:	682b      	ldr	r3, [r5, #0]
 8001e88:	423b      	tst	r3, r7
 8001e8a:	d1a2      	bne.n	8001dd2 <HAL_RCC_OscConfig+0x16>
 8001e8c:	f7fe fcee 	bl	800086c <HAL_GetTick>
 8001e90:	1b80      	subs	r0, r0, r6
 8001e92:	2864      	cmp	r0, #100	@ 0x64
 8001e94:	d9f7      	bls.n	8001e86 <HAL_RCC_OscConfig+0xca>
 8001e96:	2003      	movs	r0, #3
 8001e98:	e796      	b.n	8001dc8 <HAL_RCC_OscConfig+0xc>
 8001e9a:	2b00      	cmp	r3, #0
 8001e9c:	d115      	bne.n	8001eca <HAL_RCC_OscConfig+0x10e>
 8001e9e:	682b      	ldr	r3, [r5, #0]
 8001ea0:	4a8f      	ldr	r2, [pc, #572]	@ (80020e0 <HAL_RCC_OscConfig+0x324>)
 8001ea2:	2780      	movs	r7, #128	@ 0x80
 8001ea4:	4013      	ands	r3, r2
 8001ea6:	602b      	str	r3, [r5, #0]
 8001ea8:	682b      	ldr	r3, [r5, #0]
 8001eaa:	4a8e      	ldr	r2, [pc, #568]	@ (80020e4 <HAL_RCC_OscConfig+0x328>)
 8001eac:	02bf      	lsls	r7, r7, #10
 8001eae:	4013      	ands	r3, r2
 8001eb0:	602b      	str	r3, [r5, #0]
 8001eb2:	f7fe fcdb 	bl	800086c <HAL_GetTick>
 8001eb6:	0006      	movs	r6, r0
 8001eb8:	682b      	ldr	r3, [r5, #0]
 8001eba:	423b      	tst	r3, r7
 8001ebc:	d089      	beq.n	8001dd2 <HAL_RCC_OscConfig+0x16>
 8001ebe:	f7fe fcd5 	bl	800086c <HAL_GetTick>
 8001ec2:	1b80      	subs	r0, r0, r6
 8001ec4:	2864      	cmp	r0, #100	@ 0x64
 8001ec6:	d9f7      	bls.n	8001eb8 <HAL_RCC_OscConfig+0xfc>
 8001ec8:	e7e5      	b.n	8001e96 <HAL_RCC_OscConfig+0xda>
 8001eca:	2b05      	cmp	r3, #5
 8001ecc:	d105      	bne.n	8001eda <HAL_RCC_OscConfig+0x11e>
 8001ece:	2380      	movs	r3, #128	@ 0x80
 8001ed0:	682a      	ldr	r2, [r5, #0]
 8001ed2:	02db      	lsls	r3, r3, #11
 8001ed4:	4313      	orrs	r3, r2
 8001ed6:	602b      	str	r3, [r5, #0]
 8001ed8:	e7cb      	b.n	8001e72 <HAL_RCC_OscConfig+0xb6>
 8001eda:	682b      	ldr	r3, [r5, #0]
 8001edc:	4a80      	ldr	r2, [pc, #512]	@ (80020e0 <HAL_RCC_OscConfig+0x324>)
 8001ede:	4013      	ands	r3, r2
 8001ee0:	602b      	str	r3, [r5, #0]
 8001ee2:	682b      	ldr	r3, [r5, #0]
 8001ee4:	4a7f      	ldr	r2, [pc, #508]	@ (80020e4 <HAL_RCC_OscConfig+0x328>)
 8001ee6:	4013      	ands	r3, r2
 8001ee8:	e7c7      	b.n	8001e7a <HAL_RCC_OscConfig+0xbe>
 8001eea:	220c      	movs	r2, #12
 8001eec:	4d7b      	ldr	r5, [pc, #492]	@ (80020dc <HAL_RCC_OscConfig+0x320>)
 8001eee:	686b      	ldr	r3, [r5, #4]
 8001ef0:	4213      	tst	r3, r2
 8001ef2:	d00b      	beq.n	8001f0c <HAL_RCC_OscConfig+0x150>
 8001ef4:	686b      	ldr	r3, [r5, #4]
 8001ef6:	4013      	ands	r3, r2
 8001ef8:	2b08      	cmp	r3, #8
 8001efa:	d116      	bne.n	8001f2a <HAL_RCC_OscConfig+0x16e>
 8001efc:	22c0      	movs	r2, #192	@ 0xc0
 8001efe:	686b      	ldr	r3, [r5, #4]
 8001f00:	0252      	lsls	r2, r2, #9
 8001f02:	4013      	ands	r3, r2
 8001f04:	2280      	movs	r2, #128	@ 0x80
 8001f06:	0212      	lsls	r2, r2, #8
 8001f08:	4293      	cmp	r3, r2
 8001f0a:	d10e      	bne.n	8001f2a <HAL_RCC_OscConfig+0x16e>
 8001f0c:	682b      	ldr	r3, [r5, #0]
 8001f0e:	079b      	lsls	r3, r3, #30
 8001f10:	d503      	bpl.n	8001f1a <HAL_RCC_OscConfig+0x15e>
 8001f12:	68e3      	ldr	r3, [r4, #12]
 8001f14:	2b01      	cmp	r3, #1
 8001f16:	d000      	beq.n	8001f1a <HAL_RCC_OscConfig+0x15e>
 8001f18:	e755      	b.n	8001dc6 <HAL_RCC_OscConfig+0xa>
 8001f1a:	21f8      	movs	r1, #248	@ 0xf8
 8001f1c:	682a      	ldr	r2, [r5, #0]
 8001f1e:	6923      	ldr	r3, [r4, #16]
 8001f20:	438a      	bics	r2, r1
 8001f22:	00db      	lsls	r3, r3, #3
 8001f24:	4313      	orrs	r3, r2
 8001f26:	602b      	str	r3, [r5, #0]
 8001f28:	e757      	b.n	8001dda <HAL_RCC_OscConfig+0x1e>
 8001f2a:	68e2      	ldr	r2, [r4, #12]
 8001f2c:	2301      	movs	r3, #1
 8001f2e:	2a00      	cmp	r2, #0
 8001f30:	d00f      	beq.n	8001f52 <HAL_RCC_OscConfig+0x196>
 8001f32:	682a      	ldr	r2, [r5, #0]
 8001f34:	2702      	movs	r7, #2
 8001f36:	4313      	orrs	r3, r2
 8001f38:	602b      	str	r3, [r5, #0]
 8001f3a:	f7fe fc97 	bl	800086c <HAL_GetTick>
 8001f3e:	0006      	movs	r6, r0
 8001f40:	682b      	ldr	r3, [r5, #0]
 8001f42:	423b      	tst	r3, r7
 8001f44:	d1e9      	bne.n	8001f1a <HAL_RCC_OscConfig+0x15e>
 8001f46:	f7fe fc91 	bl	800086c <HAL_GetTick>
 8001f4a:	1b80      	subs	r0, r0, r6
 8001f4c:	2802      	cmp	r0, #2
 8001f4e:	d9f7      	bls.n	8001f40 <HAL_RCC_OscConfig+0x184>
 8001f50:	e7a1      	b.n	8001e96 <HAL_RCC_OscConfig+0xda>
 8001f52:	682a      	ldr	r2, [r5, #0]
 8001f54:	2702      	movs	r7, #2
 8001f56:	439a      	bics	r2, r3
 8001f58:	602a      	str	r2, [r5, #0]
 8001f5a:	f7fe fc87 	bl	800086c <HAL_GetTick>
 8001f5e:	0006      	movs	r6, r0
 8001f60:	682b      	ldr	r3, [r5, #0]
 8001f62:	423b      	tst	r3, r7
 8001f64:	d100      	bne.n	8001f68 <HAL_RCC_OscConfig+0x1ac>
 8001f66:	e738      	b.n	8001dda <HAL_RCC_OscConfig+0x1e>
 8001f68:	f7fe fc80 	bl	800086c <HAL_GetTick>
 8001f6c:	1b80      	subs	r0, r0, r6
 8001f6e:	2802      	cmp	r0, #2
 8001f70:	d9f6      	bls.n	8001f60 <HAL_RCC_OscConfig+0x1a4>
 8001f72:	e790      	b.n	8001e96 <HAL_RCC_OscConfig+0xda>
 8001f74:	69e2      	ldr	r2, [r4, #28]
 8001f76:	2301      	movs	r3, #1
 8001f78:	4d58      	ldr	r5, [pc, #352]	@ (80020dc <HAL_RCC_OscConfig+0x320>)
 8001f7a:	2a00      	cmp	r2, #0
 8001f7c:	d010      	beq.n	8001fa0 <HAL_RCC_OscConfig+0x1e4>
 8001f7e:	6a6a      	ldr	r2, [r5, #36]	@ 0x24
 8001f80:	2702      	movs	r7, #2
 8001f82:	4313      	orrs	r3, r2
 8001f84:	626b      	str	r3, [r5, #36]	@ 0x24
 8001f86:	f7fe fc71 	bl	800086c <HAL_GetTick>
 8001f8a:	0006      	movs	r6, r0
 8001f8c:	6a6b      	ldr	r3, [r5, #36]	@ 0x24
 8001f8e:	423b      	tst	r3, r7
 8001f90:	d000      	beq.n	8001f94 <HAL_RCC_OscConfig+0x1d8>
 8001f92:	e726      	b.n	8001de2 <HAL_RCC_OscConfig+0x26>
 8001f94:	f7fe fc6a 	bl	800086c <HAL_GetTick>
 8001f98:	1b80      	subs	r0, r0, r6
 8001f9a:	2802      	cmp	r0, #2
 8001f9c:	d9f6      	bls.n	8001f8c <HAL_RCC_OscConfig+0x1d0>
 8001f9e:	e77a      	b.n	8001e96 <HAL_RCC_OscConfig+0xda>
 8001fa0:	6a6a      	ldr	r2, [r5, #36]	@ 0x24
 8001fa2:	2702      	movs	r7, #2
 8001fa4:	439a      	bics	r2, r3
 8001fa6:	626a      	str	r2, [r5, #36]	@ 0x24
 8001fa8:	f7fe fc60 	bl	800086c <HAL_GetTick>
 8001fac:	0006      	movs	r6, r0
 8001fae:	6a6b      	ldr	r3, [r5, #36]	@ 0x24
 8001fb0:	423b      	tst	r3, r7
 8001fb2:	d100      	bne.n	8001fb6 <HAL_RCC_OscConfig+0x1fa>
 8001fb4:	e715      	b.n	8001de2 <HAL_RCC_OscConfig+0x26>
 8001fb6:	f7fe fc59 	bl	800086c <HAL_GetTick>
 8001fba:	1b80      	subs	r0, r0, r6
 8001fbc:	2802      	cmp	r0, #2
 8001fbe:	d9f6      	bls.n	8001fae <HAL_RCC_OscConfig+0x1f2>
 8001fc0:	e769      	b.n	8001e96 <HAL_RCC_OscConfig+0xda>
 8001fc2:	2280      	movs	r2, #128	@ 0x80
 8001fc4:	2100      	movs	r1, #0
 8001fc6:	4d45      	ldr	r5, [pc, #276]	@ (80020dc <HAL_RCC_OscConfig+0x320>)
 8001fc8:	0552      	lsls	r2, r2, #21
 8001fca:	69eb      	ldr	r3, [r5, #28]
 8001fcc:	9100      	str	r1, [sp, #0]
 8001fce:	4213      	tst	r3, r2
 8001fd0:	d108      	bne.n	8001fe4 <HAL_RCC_OscConfig+0x228>
 8001fd2:	69eb      	ldr	r3, [r5, #28]
 8001fd4:	4313      	orrs	r3, r2
 8001fd6:	61eb      	str	r3, [r5, #28]
 8001fd8:	69eb      	ldr	r3, [r5, #28]
 8001fda:	4013      	ands	r3, r2
 8001fdc:	9303      	str	r3, [sp, #12]
 8001fde:	9b03      	ldr	r3, [sp, #12]
 8001fe0:	2301      	movs	r3, #1
 8001fe2:	9300      	str	r3, [sp, #0]
 8001fe4:	2780      	movs	r7, #128	@ 0x80
 8001fe6:	4e40      	ldr	r6, [pc, #256]	@ (80020e8 <HAL_RCC_OscConfig+0x32c>)
 8001fe8:	007f      	lsls	r7, r7, #1
 8001fea:	6833      	ldr	r3, [r6, #0]
 8001fec:	423b      	tst	r3, r7
 8001fee:	d015      	beq.n	800201c <HAL_RCC_OscConfig+0x260>
 8001ff0:	68a3      	ldr	r3, [r4, #8]
 8001ff2:	2b01      	cmp	r3, #1
 8001ff4:	d122      	bne.n	800203c <HAL_RCC_OscConfig+0x280>
 8001ff6:	6a2a      	ldr	r2, [r5, #32]
 8001ff8:	4313      	orrs	r3, r2
 8001ffa:	622b      	str	r3, [r5, #32]
 8001ffc:	f7fe fc36 	bl	800086c <HAL_GetTick>
 8002000:	2702      	movs	r7, #2
 8002002:	0006      	movs	r6, r0
 8002004:	6a2b      	ldr	r3, [r5, #32]
 8002006:	423b      	tst	r3, r7
 8002008:	d03f      	beq.n	800208a <HAL_RCC_OscConfig+0x2ce>
 800200a:	9b00      	ldr	r3, [sp, #0]
 800200c:	2b01      	cmp	r3, #1
 800200e:	d000      	beq.n	8002012 <HAL_RCC_OscConfig+0x256>
 8002010:	e6eb      	b.n	8001dea <HAL_RCC_OscConfig+0x2e>
 8002012:	69eb      	ldr	r3, [r5, #28]
 8002014:	4a35      	ldr	r2, [pc, #212]	@ (80020ec <HAL_RCC_OscConfig+0x330>)
 8002016:	4013      	ands	r3, r2
 8002018:	61eb      	str	r3, [r5, #28]
 800201a:	e6e6      	b.n	8001dea <HAL_RCC_OscConfig+0x2e>
 800201c:	6833      	ldr	r3, [r6, #0]
 800201e:	433b      	orrs	r3, r7
 8002020:	6033      	str	r3, [r6, #0]
 8002022:	f7fe fc23 	bl	800086c <HAL_GetTick>
 8002026:	9001      	str	r0, [sp, #4]
 8002028:	6833      	ldr	r3, [r6, #0]
 800202a:	423b      	tst	r3, r7
 800202c:	d1e0      	bne.n	8001ff0 <HAL_RCC_OscConfig+0x234>
 800202e:	f7fe fc1d 	bl	800086c <HAL_GetTick>
 8002032:	9b01      	ldr	r3, [sp, #4]
 8002034:	1ac0      	subs	r0, r0, r3
 8002036:	2864      	cmp	r0, #100	@ 0x64
 8002038:	d9f6      	bls.n	8002028 <HAL_RCC_OscConfig+0x26c>
 800203a:	e72c      	b.n	8001e96 <HAL_RCC_OscConfig+0xda>
 800203c:	2201      	movs	r2, #1
 800203e:	2b00      	cmp	r3, #0
 8002040:	d114      	bne.n	800206c <HAL_RCC_OscConfig+0x2b0>
 8002042:	6a2b      	ldr	r3, [r5, #32]
 8002044:	2702      	movs	r7, #2
 8002046:	4393      	bics	r3, r2
 8002048:	622b      	str	r3, [r5, #32]
 800204a:	6a2b      	ldr	r3, [r5, #32]
 800204c:	3203      	adds	r2, #3
 800204e:	4393      	bics	r3, r2
 8002050:	622b      	str	r3, [r5, #32]
 8002052:	f7fe fc0b 	bl	800086c <HAL_GetTick>
 8002056:	0006      	movs	r6, r0
 8002058:	6a2b      	ldr	r3, [r5, #32]
 800205a:	423b      	tst	r3, r7
 800205c:	d0d5      	beq.n	800200a <HAL_RCC_OscConfig+0x24e>
 800205e:	f7fe fc05 	bl	800086c <HAL_GetTick>
 8002062:	4b23      	ldr	r3, [pc, #140]	@ (80020f0 <HAL_RCC_OscConfig+0x334>)
 8002064:	1b80      	subs	r0, r0, r6
 8002066:	4298      	cmp	r0, r3
 8002068:	d9f6      	bls.n	8002058 <HAL_RCC_OscConfig+0x29c>
 800206a:	e714      	b.n	8001e96 <HAL_RCC_OscConfig+0xda>
 800206c:	2b05      	cmp	r3, #5
 800206e:	d105      	bne.n	800207c <HAL_RCC_OscConfig+0x2c0>
 8002070:	6a29      	ldr	r1, [r5, #32]
 8002072:	3b01      	subs	r3, #1
 8002074:	430b      	orrs	r3, r1
 8002076:	622b      	str	r3, [r5, #32]
 8002078:	6a2b      	ldr	r3, [r5, #32]
 800207a:	e7bd      	b.n	8001ff8 <HAL_RCC_OscConfig+0x23c>
 800207c:	6a2b      	ldr	r3, [r5, #32]
 800207e:	4393      	bics	r3, r2
 8002080:	2204      	movs	r2, #4
 8002082:	622b      	str	r3, [r5, #32]
 8002084:	6a2b      	ldr	r3, [r5, #32]
 8002086:	4393      	bics	r3, r2
 8002088:	e7b7      	b.n	8001ffa <HAL_RCC_OscConfig+0x23e>
 800208a:	f7fe fbef 	bl	800086c <HAL_GetTick>
 800208e:	4b18      	ldr	r3, [pc, #96]	@ (80020f0 <HAL_RCC_OscConfig+0x334>)
 8002090:	1b80      	subs	r0, r0, r6
 8002092:	4298      	cmp	r0, r3
 8002094:	d9b6      	bls.n	8002004 <HAL_RCC_OscConfig+0x248>
 8002096:	e6fe      	b.n	8001e96 <HAL_RCC_OscConfig+0xda>
 8002098:	f7fe fbe8 	bl	800086c <HAL_GetTick>
 800209c:	1b80      	subs	r0, r0, r6
 800209e:	2802      	cmp	r0, #2
 80020a0:	d800      	bhi.n	80020a4 <HAL_RCC_OscConfig+0x2e8>
 80020a2:	e6b5      	b.n	8001e10 <HAL_RCC_OscConfig+0x54>
 80020a4:	e6f7      	b.n	8001e96 <HAL_RCC_OscConfig+0xda>
 80020a6:	3205      	adds	r2, #5
 80020a8:	d103      	bne.n	80020b2 <HAL_RCC_OscConfig+0x2f6>
 80020aa:	6b6a      	ldr	r2, [r5, #52]	@ 0x34
 80020ac:	439a      	bics	r2, r3
 80020ae:	636a      	str	r2, [r5, #52]	@ 0x34
 80020b0:	e6b2      	b.n	8001e18 <HAL_RCC_OscConfig+0x5c>
 80020b2:	6b6a      	ldr	r2, [r5, #52]	@ 0x34
 80020b4:	2702      	movs	r7, #2
 80020b6:	4313      	orrs	r3, r2
 80020b8:	2201      	movs	r2, #1
 80020ba:	636b      	str	r3, [r5, #52]	@ 0x34
 80020bc:	6b6b      	ldr	r3, [r5, #52]	@ 0x34
 80020be:	4393      	bics	r3, r2
 80020c0:	636b      	str	r3, [r5, #52]	@ 0x34
 80020c2:	f7fe fbd3 	bl	800086c <HAL_GetTick>
 80020c6:	0006      	movs	r6, r0
 80020c8:	6b6b      	ldr	r3, [r5, #52]	@ 0x34
 80020ca:	423b      	tst	r3, r7
 80020cc:	d100      	bne.n	80020d0 <HAL_RCC_OscConfig+0x314>
 80020ce:	e6aa      	b.n	8001e26 <HAL_RCC_OscConfig+0x6a>
 80020d0:	f7fe fbcc 	bl	800086c <HAL_GetTick>
 80020d4:	1b80      	subs	r0, r0, r6
 80020d6:	2802      	cmp	r0, #2
 80020d8:	d9f6      	bls.n	80020c8 <HAL_RCC_OscConfig+0x30c>
 80020da:	e6dc      	b.n	8001e96 <HAL_RCC_OscConfig+0xda>
 80020dc:	40021000 	.word	0x40021000
 80020e0:	fffeffff 	.word	0xfffeffff
 80020e4:	fffbffff 	.word	0xfffbffff
 80020e8:	40007000 	.word	0x40007000
 80020ec:	efffffff 	.word	0xefffffff
 80020f0:	00001388 	.word	0x00001388
 80020f4:	220c      	movs	r2, #12
 80020f6:	4d55      	ldr	r5, [pc, #340]	@ (800224c <HAL_RCC_OscConfig+0x490>)
 80020f8:	686b      	ldr	r3, [r5, #4]
 80020fa:	4013      	ands	r3, r2
 80020fc:	4293      	cmp	r3, r2
 80020fe:	d009      	beq.n	8002114 <HAL_RCC_OscConfig+0x358>
 8002100:	686b      	ldr	r3, [r5, #4]
 8002102:	4013      	ands	r3, r2
 8002104:	2b08      	cmp	r3, #8
 8002106:	d10e      	bne.n	8002126 <HAL_RCC_OscConfig+0x36a>
 8002108:	22c0      	movs	r2, #192	@ 0xc0
 800210a:	686b      	ldr	r3, [r5, #4]
 800210c:	0252      	lsls	r2, r2, #9
 800210e:	4013      	ands	r3, r2
 8002110:	4293      	cmp	r3, r2
 8002112:	d108      	bne.n	8002126 <HAL_RCC_OscConfig+0x36a>
 8002114:	6b6b      	ldr	r3, [r5, #52]	@ 0x34
 8002116:	039b      	lsls	r3, r3, #14
 8002118:	d400      	bmi.n	800211c <HAL_RCC_OscConfig+0x360>
 800211a:	e688      	b.n	8001e2e <HAL_RCC_OscConfig+0x72>
 800211c:	6a23      	ldr	r3, [r4, #32]
 800211e:	2b01      	cmp	r3, #1
 8002120:	d000      	beq.n	8002124 <HAL_RCC_OscConfig+0x368>
 8002122:	e650      	b.n	8001dc6 <HAL_RCC_OscConfig+0xa>
 8002124:	e683      	b.n	8001e2e <HAL_RCC_OscConfig+0x72>
 8002126:	6a23      	ldr	r3, [r4, #32]
 8002128:	2b00      	cmp	r3, #0
 800212a:	d013      	beq.n	8002154 <HAL_RCC_OscConfig+0x398>
 800212c:	2380      	movs	r3, #128	@ 0x80
 800212e:	6b6a      	ldr	r2, [r5, #52]	@ 0x34
 8002130:	025b      	lsls	r3, r3, #9
 8002132:	4313      	orrs	r3, r2
 8002134:	636b      	str	r3, [r5, #52]	@ 0x34
 8002136:	f7fe fb99 	bl	800086c <HAL_GetTick>
 800213a:	2780      	movs	r7, #128	@ 0x80
 800213c:	0006      	movs	r6, r0
 800213e:	02bf      	lsls	r7, r7, #10
 8002140:	6b6b      	ldr	r3, [r5, #52]	@ 0x34
 8002142:	423b      	tst	r3, r7
 8002144:	d000      	beq.n	8002148 <HAL_RCC_OscConfig+0x38c>
 8002146:	e672      	b.n	8001e2e <HAL_RCC_OscConfig+0x72>
 8002148:	f7fe fb90 	bl	800086c <HAL_GetTick>
 800214c:	1b80      	subs	r0, r0, r6
 800214e:	2802      	cmp	r0, #2
 8002150:	d9f6      	bls.n	8002140 <HAL_RCC_OscConfig+0x384>
 8002152:	e6a0      	b.n	8001e96 <HAL_RCC_OscConfig+0xda>
 8002154:	6b6b      	ldr	r3, [r5, #52]	@ 0x34
 8002156:	4a3e      	ldr	r2, [pc, #248]	@ (8002250 <HAL_RCC_OscConfig+0x494>)
 8002158:	2780      	movs	r7, #128	@ 0x80
 800215a:	4013      	ands	r3, r2
 800215c:	636b      	str	r3, [r5, #52]	@ 0x34
 800215e:	f7fe fb85 	bl	800086c <HAL_GetTick>
 8002162:	0006      	movs	r6, r0
 8002164:	02bf      	lsls	r7, r7, #10
 8002166:	6b6b      	ldr	r3, [r5, #52]	@ 0x34
 8002168:	423b      	tst	r3, r7
 800216a:	d100      	bne.n	800216e <HAL_RCC_OscConfig+0x3b2>
 800216c:	e65f      	b.n	8001e2e <HAL_RCC_OscConfig+0x72>
 800216e:	f7fe fb7d 	bl	800086c <HAL_GetTick>
 8002172:	1b80      	subs	r0, r0, r6
 8002174:	2802      	cmp	r0, #2
 8002176:	d9f6      	bls.n	8002166 <HAL_RCC_OscConfig+0x3aa>
 8002178:	e68d      	b.n	8001e96 <HAL_RCC_OscConfig+0xda>
 800217a:	210c      	movs	r1, #12
 800217c:	4d33      	ldr	r5, [pc, #204]	@ (800224c <HAL_RCC_OscConfig+0x490>)
 800217e:	686a      	ldr	r2, [r5, #4]
 8002180:	400a      	ands	r2, r1
 8002182:	2a08      	cmp	r2, #8
 8002184:	d047      	beq.n	8002216 <HAL_RCC_OscConfig+0x45a>
 8002186:	4a33      	ldr	r2, [pc, #204]	@ (8002254 <HAL_RCC_OscConfig+0x498>)
 8002188:	2b02      	cmp	r3, #2
 800218a:	d132      	bne.n	80021f2 <HAL_RCC_OscConfig+0x436>
 800218c:	682b      	ldr	r3, [r5, #0]
 800218e:	2780      	movs	r7, #128	@ 0x80
 8002190:	4013      	ands	r3, r2
 8002192:	602b      	str	r3, [r5, #0]
 8002194:	f7fe fb6a 	bl	800086c <HAL_GetTick>
 8002198:	0006      	movs	r6, r0
 800219a:	04bf      	lsls	r7, r7, #18
 800219c:	682b      	ldr	r3, [r5, #0]
 800219e:	423b      	tst	r3, r7
 80021a0:	d121      	bne.n	80021e6 <HAL_RCC_OscConfig+0x42a>
 80021a2:	220f      	movs	r2, #15
 80021a4:	6aeb      	ldr	r3, [r5, #44]	@ 0x2c
 80021a6:	2680      	movs	r6, #128	@ 0x80
 80021a8:	4393      	bics	r3, r2
 80021aa:	6b22      	ldr	r2, [r4, #48]	@ 0x30
 80021ac:	04b6      	lsls	r6, r6, #18
 80021ae:	4313      	orrs	r3, r2
 80021b0:	62eb      	str	r3, [r5, #44]	@ 0x2c
 80021b2:	6aa1      	ldr	r1, [r4, #40]	@ 0x28
 80021b4:	6ae3      	ldr	r3, [r4, #44]	@ 0x2c
 80021b6:	686a      	ldr	r2, [r5, #4]
 80021b8:	430b      	orrs	r3, r1
 80021ba:	4927      	ldr	r1, [pc, #156]	@ (8002258 <HAL_RCC_OscConfig+0x49c>)
 80021bc:	400a      	ands	r2, r1
 80021be:	4313      	orrs	r3, r2
 80021c0:	606b      	str	r3, [r5, #4]
 80021c2:	2380      	movs	r3, #128	@ 0x80
 80021c4:	682a      	ldr	r2, [r5, #0]
 80021c6:	045b      	lsls	r3, r3, #17
 80021c8:	4313      	orrs	r3, r2
 80021ca:	602b      	str	r3, [r5, #0]
 80021cc:	f7fe fb4e 	bl	800086c <HAL_GetTick>
 80021d0:	0004      	movs	r4, r0
 80021d2:	682b      	ldr	r3, [r5, #0]
 80021d4:	4233      	tst	r3, r6
 80021d6:	d000      	beq.n	80021da <HAL_RCC_OscConfig+0x41e>
 80021d8:	e62d      	b.n	8001e36 <HAL_RCC_OscConfig+0x7a>
 80021da:	f7fe fb47 	bl	800086c <HAL_GetTick>
 80021de:	1b00      	subs	r0, r0, r4
 80021e0:	2802      	cmp	r0, #2
 80021e2:	d9f6      	bls.n	80021d2 <HAL_RCC_OscConfig+0x416>
 80021e4:	e657      	b.n	8001e96 <HAL_RCC_OscConfig+0xda>
 80021e6:	f7fe fb41 	bl	800086c <HAL_GetTick>
 80021ea:	1b80      	subs	r0, r0, r6
 80021ec:	2802      	cmp	r0, #2
 80021ee:	d9d5      	bls.n	800219c <HAL_RCC_OscConfig+0x3e0>
 80021f0:	e651      	b.n	8001e96 <HAL_RCC_OscConfig+0xda>
 80021f2:	682b      	ldr	r3, [r5, #0]
 80021f4:	2680      	movs	r6, #128	@ 0x80
 80021f6:	4013      	ands	r3, r2
 80021f8:	602b      	str	r3, [r5, #0]
 80021fa:	f7fe fb37 	bl	800086c <HAL_GetTick>
 80021fe:	0004      	movs	r4, r0
 8002200:	04b6      	lsls	r6, r6, #18
 8002202:	682b      	ldr	r3, [r5, #0]
 8002204:	4233      	tst	r3, r6
 8002206:	d100      	bne.n	800220a <HAL_RCC_OscConfig+0x44e>
 8002208:	e615      	b.n	8001e36 <HAL_RCC_OscConfig+0x7a>
 800220a:	f7fe fb2f 	bl	800086c <HAL_GetTick>
 800220e:	1b00      	subs	r0, r0, r4
 8002210:	2802      	cmp	r0, #2
 8002212:	d9f6      	bls.n	8002202 <HAL_RCC_OscConfig+0x446>
 8002214:	e63f      	b.n	8001e96 <HAL_RCC_OscConfig+0xda>
 8002216:	2b01      	cmp	r3, #1
 8002218:	d100      	bne.n	800221c <HAL_RCC_OscConfig+0x460>
 800221a:	e5d4      	b.n	8001dc6 <HAL_RCC_OscConfig+0xa>
 800221c:	22c0      	movs	r2, #192	@ 0xc0
 800221e:	6868      	ldr	r0, [r5, #4]
 8002220:	6aa1      	ldr	r1, [r4, #40]	@ 0x28
 8002222:	0252      	lsls	r2, r2, #9
 8002224:	6aeb      	ldr	r3, [r5, #44]	@ 0x2c
 8002226:	4002      	ands	r2, r0
 8002228:	428a      	cmp	r2, r1
 800222a:	d000      	beq.n	800222e <HAL_RCC_OscConfig+0x472>
 800222c:	e5cb      	b.n	8001dc6 <HAL_RCC_OscConfig+0xa>
 800222e:	220f      	movs	r2, #15
 8002230:	4013      	ands	r3, r2
 8002232:	6b22      	ldr	r2, [r4, #48]	@ 0x30
 8002234:	4293      	cmp	r3, r2
 8002236:	d000      	beq.n	800223a <HAL_RCC_OscConfig+0x47e>
 8002238:	e5c5      	b.n	8001dc6 <HAL_RCC_OscConfig+0xa>
 800223a:	23f0      	movs	r3, #240	@ 0xf0
 800223c:	039b      	lsls	r3, r3, #14
 800223e:	4018      	ands	r0, r3
 8002240:	6ae3      	ldr	r3, [r4, #44]	@ 0x2c
 8002242:	1ac0      	subs	r0, r0, r3
 8002244:	1e43      	subs	r3, r0, #1
 8002246:	4198      	sbcs	r0, r3
 8002248:	b2c0      	uxtb	r0, r0
 800224a:	e5bd      	b.n	8001dc8 <HAL_RCC_OscConfig+0xc>
 800224c:	40021000 	.word	0x40021000
 8002250:	fffeffff 	.word	0xfffeffff
 8002254:	feffffff 	.word	0xfeffffff
 8002258:	ffc27fff 	.word	0xffc27fff

0800225c <HAL_RCC_GetSysClockFreq>:
 800225c:	200c      	movs	r0, #12
 800225e:	b570      	push	{r4, r5, r6, lr}
 8002260:	4d13      	ldr	r5, [pc, #76]	@ (80022b0 <HAL_RCC_GetSysClockFreq+0x54>)
 8002262:	686b      	ldr	r3, [r5, #4]
 8002264:	4018      	ands	r0, r3
 8002266:	2808      	cmp	r0, #8
 8002268:	d008      	beq.n	800227c <HAL_RCC_GetSysClockFreq+0x20>
 800226a:	380c      	subs	r0, #12
 800226c:	4243      	negs	r3, r0
 800226e:	4158      	adcs	r0, r3
 8002270:	4b10      	ldr	r3, [pc, #64]	@ (80022b4 <HAL_RCC_GetSysClockFreq+0x58>)
 8002272:	4240      	negs	r0, r0
 8002274:	4018      	ands	r0, r3
 8002276:	4b10      	ldr	r3, [pc, #64]	@ (80022b8 <HAL_RCC_GetSysClockFreq+0x5c>)
 8002278:	18c0      	adds	r0, r0, r3
 800227a:	bd70      	pop	{r4, r5, r6, pc}
 800227c:	200f      	movs	r0, #15
 800227e:	490f      	ldr	r1, [pc, #60]	@ (80022bc <HAL_RCC_GetSysClockFreq+0x60>)
 8002280:	0c9a      	lsrs	r2, r3, #18
 8002282:	4002      	ands	r2, r0
 8002284:	5c8c      	ldrb	r4, [r1, r2]
 8002286:	6aea      	ldr	r2, [r5, #44]	@ 0x2c
 8002288:	490d      	ldr	r1, [pc, #52]	@ (80022c0 <HAL_RCC_GetSysClockFreq+0x64>)
 800228a:	4002      	ands	r2, r0
 800228c:	5c89      	ldrb	r1, [r1, r2]
 800228e:	22c0      	movs	r2, #192	@ 0xc0
 8002290:	2080      	movs	r0, #128	@ 0x80
 8002292:	0252      	lsls	r2, r2, #9
 8002294:	4013      	ands	r3, r2
 8002296:	0240      	lsls	r0, r0, #9
 8002298:	4283      	cmp	r3, r0
 800229a:	d101      	bne.n	80022a0 <HAL_RCC_GetSysClockFreq+0x44>
 800229c:	4806      	ldr	r0, [pc, #24]	@ (80022b8 <HAL_RCC_GetSysClockFreq+0x5c>)
 800229e:	e002      	b.n	80022a6 <HAL_RCC_GetSysClockFreq+0x4a>
 80022a0:	4293      	cmp	r3, r2
 80022a2:	d1fb      	bne.n	800229c <HAL_RCC_GetSysClockFreq+0x40>
 80022a4:	4807      	ldr	r0, [pc, #28]	@ (80022c4 <HAL_RCC_GetSysClockFreq+0x68>)
 80022a6:	f7fd ff4b 	bl	8000140 <__udivsi3>
 80022aa:	4360      	muls	r0, r4
 80022ac:	e7e5      	b.n	800227a <HAL_RCC_GetSysClockFreq+0x1e>
 80022ae:	46c0      	nop			@ (mov r8, r8)
 80022b0:	40021000 	.word	0x40021000
 80022b4:	02625a00 	.word	0x02625a00
 80022b8:	007a1200 	.word	0x007a1200
 80022bc:	0800441c 	.word	0x0800441c
 80022c0:	0800440c 	.word	0x0800440c
 80022c4:	02dc6c00 	.word	0x02dc6c00

080022c8 <HAL_RCC_ClockConfig>:
 80022c8:	b5f7      	push	{r0, r1, r2, r4, r5, r6, r7, lr}
 80022ca:	0004      	movs	r4, r0
 80022cc:	000f      	movs	r7, r1
 80022ce:	2800      	cmp	r0, #0
 80022d0:	d101      	bne.n	80022d6 <HAL_RCC_ClockConfig+0xe>
 80022d2:	2001      	movs	r0, #1
 80022d4:	bdfe      	pop	{r1, r2, r3, r4, r5, r6, r7, pc}
 80022d6:	2201      	movs	r2, #1
 80022d8:	4d3a      	ldr	r5, [pc, #232]	@ (80023c4 <HAL_RCC_ClockConfig+0xfc>)
 80022da:	682b      	ldr	r3, [r5, #0]
 80022dc:	4013      	ands	r3, r2
 80022de:	428b      	cmp	r3, r1
 80022e0:	d31c      	bcc.n	800231c <HAL_RCC_ClockConfig+0x54>
 80022e2:	6822      	ldr	r2, [r4, #0]
 80022e4:	0793      	lsls	r3, r2, #30
 80022e6:	d422      	bmi.n	800232e <HAL_RCC_ClockConfig+0x66>
 80022e8:	07d2      	lsls	r2, r2, #31
 80022ea:	d42f      	bmi.n	800234c <HAL_RCC_ClockConfig+0x84>
 80022ec:	2301      	movs	r3, #1
 80022ee:	682a      	ldr	r2, [r5, #0]
 80022f0:	401a      	ands	r2, r3
 80022f2:	42ba      	cmp	r2, r7
 80022f4:	d857      	bhi.n	80023a6 <HAL_RCC_ClockConfig+0xde>
 80022f6:	6823      	ldr	r3, [r4, #0]
 80022f8:	4d33      	ldr	r5, [pc, #204]	@ (80023c8 <HAL_RCC_ClockConfig+0x100>)
 80022fa:	075b      	lsls	r3, r3, #29
 80022fc:	d45a      	bmi.n	80023b4 <HAL_RCC_ClockConfig+0xec>
 80022fe:	f7ff ffad 	bl	800225c <HAL_RCC_GetSysClockFreq>
 8002302:	686b      	ldr	r3, [r5, #4]
 8002304:	4a31      	ldr	r2, [pc, #196]	@ (80023cc <HAL_RCC_ClockConfig+0x104>)
 8002306:	061b      	lsls	r3, r3, #24
 8002308:	0f1b      	lsrs	r3, r3, #28
 800230a:	5cd3      	ldrb	r3, [r2, r3]
 800230c:	4930      	ldr	r1, [pc, #192]	@ (80023d0 <HAL_RCC_ClockConfig+0x108>)
 800230e:	40d8      	lsrs	r0, r3
 8002310:	6008      	str	r0, [r1, #0]
 8002312:	2003      	movs	r0, #3
 8002314:	f7fe fa6a 	bl	80007ec <HAL_InitTick>
 8002318:	2000      	movs	r0, #0
 800231a:	e7db      	b.n	80022d4 <HAL_RCC_ClockConfig+0xc>
 800231c:	682b      	ldr	r3, [r5, #0]
 800231e:	4393      	bics	r3, r2
 8002320:	430b      	orrs	r3, r1
 8002322:	602b      	str	r3, [r5, #0]
 8002324:	682b      	ldr	r3, [r5, #0]
 8002326:	4013      	ands	r3, r2
 8002328:	428b      	cmp	r3, r1
 800232a:	d1d2      	bne.n	80022d2 <HAL_RCC_ClockConfig+0xa>
 800232c:	e7d9      	b.n	80022e2 <HAL_RCC_ClockConfig+0x1a>
 800232e:	4926      	ldr	r1, [pc, #152]	@ (80023c8 <HAL_RCC_ClockConfig+0x100>)
 8002330:	0753      	lsls	r3, r2, #29
 8002332:	d504      	bpl.n	800233e <HAL_RCC_ClockConfig+0x76>
 8002334:	23e0      	movs	r3, #224	@ 0xe0
 8002336:	6848      	ldr	r0, [r1, #4]
 8002338:	00db      	lsls	r3, r3, #3
 800233a:	4303      	orrs	r3, r0
 800233c:	604b      	str	r3, [r1, #4]
 800233e:	20f0      	movs	r0, #240	@ 0xf0
 8002340:	684b      	ldr	r3, [r1, #4]
 8002342:	4383      	bics	r3, r0
 8002344:	68a0      	ldr	r0, [r4, #8]
 8002346:	4303      	orrs	r3, r0
 8002348:	604b      	str	r3, [r1, #4]
 800234a:	e7cd      	b.n	80022e8 <HAL_RCC_ClockConfig+0x20>
 800234c:	6862      	ldr	r2, [r4, #4]
 800234e:	4e1e      	ldr	r6, [pc, #120]	@ (80023c8 <HAL_RCC_ClockConfig+0x100>)
 8002350:	2a01      	cmp	r2, #1
 8002352:	d103      	bne.n	800235c <HAL_RCC_ClockConfig+0x94>
 8002354:	6833      	ldr	r3, [r6, #0]
 8002356:	039b      	lsls	r3, r3, #14
 8002358:	d405      	bmi.n	8002366 <HAL_RCC_ClockConfig+0x9e>
 800235a:	e7ba      	b.n	80022d2 <HAL_RCC_ClockConfig+0xa>
 800235c:	2a02      	cmp	r2, #2
 800235e:	d11a      	bne.n	8002396 <HAL_RCC_ClockConfig+0xce>
 8002360:	6833      	ldr	r3, [r6, #0]
 8002362:	019b      	lsls	r3, r3, #6
 8002364:	d5b5      	bpl.n	80022d2 <HAL_RCC_ClockConfig+0xa>
 8002366:	2103      	movs	r1, #3
 8002368:	6873      	ldr	r3, [r6, #4]
 800236a:	438b      	bics	r3, r1
 800236c:	4313      	orrs	r3, r2
 800236e:	6073      	str	r3, [r6, #4]
 8002370:	f7fe fa7c 	bl	800086c <HAL_GetTick>
 8002374:	9001      	str	r0, [sp, #4]
 8002376:	230c      	movs	r3, #12
 8002378:	6872      	ldr	r2, [r6, #4]
 800237a:	401a      	ands	r2, r3
 800237c:	6863      	ldr	r3, [r4, #4]
 800237e:	009b      	lsls	r3, r3, #2
 8002380:	429a      	cmp	r2, r3
 8002382:	d0b3      	beq.n	80022ec <HAL_RCC_ClockConfig+0x24>
 8002384:	f7fe fa72 	bl	800086c <HAL_GetTick>
 8002388:	9b01      	ldr	r3, [sp, #4]
 800238a:	1ac0      	subs	r0, r0, r3
 800238c:	4b11      	ldr	r3, [pc, #68]	@ (80023d4 <HAL_RCC_ClockConfig+0x10c>)
 800238e:	4298      	cmp	r0, r3
 8002390:	d9f1      	bls.n	8002376 <HAL_RCC_ClockConfig+0xae>
 8002392:	2003      	movs	r0, #3
 8002394:	e79e      	b.n	80022d4 <HAL_RCC_ClockConfig+0xc>
 8002396:	2a03      	cmp	r2, #3
 8002398:	d101      	bne.n	800239e <HAL_RCC_ClockConfig+0xd6>
 800239a:	6b73      	ldr	r3, [r6, #52]	@ 0x34
 800239c:	e7db      	b.n	8002356 <HAL_RCC_ClockConfig+0x8e>
 800239e:	6833      	ldr	r3, [r6, #0]
 80023a0:	079b      	lsls	r3, r3, #30
 80023a2:	d4e0      	bmi.n	8002366 <HAL_RCC_ClockConfig+0x9e>
 80023a4:	e795      	b.n	80022d2 <HAL_RCC_ClockConfig+0xa>
 80023a6:	682a      	ldr	r2, [r5, #0]
 80023a8:	439a      	bics	r2, r3
 80023aa:	602a      	str	r2, [r5, #0]
 80023ac:	682a      	ldr	r2, [r5, #0]
 80023ae:	421a      	tst	r2, r3
 80023b0:	d0a1      	beq.n	80022f6 <HAL_RCC_ClockConfig+0x2e>
 80023b2:	e78e      	b.n	80022d2 <HAL_RCC_ClockConfig+0xa>
 80023b4:	686b      	ldr	r3, [r5, #4]
 80023b6:	4a08      	ldr	r2, [pc, #32]	@ (80023d8 <HAL_RCC_ClockConfig+0x110>)
 80023b8:	4013      	ands	r3, r2
 80023ba:	68e2      	ldr	r2, [r4, #12]
 80023bc:	4313      	orrs	r3, r2
 80023be:	606b      	str	r3, [r5, #4]
 80023c0:	e79d      	b.n	80022fe <HAL_RCC_ClockConfig+0x36>
 80023c2:	46c0      	nop			@ (mov r8, r8)
 80023c4:	40022000 	.word	0x40022000
 80023c8:	40021000 	.word	0x40021000
 80023cc:	08004294 	.word	0x08004294
 80023d0:	20000000 	.word	0x20000000
 80023d4:	00001388 	.word	0x00001388
 80023d8:	fffff8ff 	.word	0xfffff8ff

080023dc <HAL_RCCEx_PeriphCLKConfig>:
 80023dc:	b5f0      	push	{r4, r5, r6, r7, lr}
 80023de:	6803      	ldr	r3, [r0, #0]
 80023e0:	0005      	movs	r5, r0
 80023e2:	b085      	sub	sp, #20
 80023e4:	03db      	lsls	r3, r3, #15
 80023e6:	d52b      	bpl.n	8002440 <HAL_RCCEx_PeriphCLKConfig+0x64>
 80023e8:	2280      	movs	r2, #128	@ 0x80
 80023ea:	2100      	movs	r1, #0
 80023ec:	4c41      	ldr	r4, [pc, #260]	@ (80024f4 <HAL_RCCEx_PeriphCLKConfig+0x118>)
 80023ee:	0552      	lsls	r2, r2, #21
 80023f0:	69e3      	ldr	r3, [r4, #28]
 80023f2:	9100      	str	r1, [sp, #0]
 80023f4:	4213      	tst	r3, r2
 80023f6:	d108      	bne.n	800240a <HAL_RCCEx_PeriphCLKConfig+0x2e>
 80023f8:	69e3      	ldr	r3, [r4, #28]
 80023fa:	4313      	orrs	r3, r2
 80023fc:	61e3      	str	r3, [r4, #28]
 80023fe:	69e3      	ldr	r3, [r4, #28]
 8002400:	4013      	ands	r3, r2
 8002402:	9303      	str	r3, [sp, #12]
 8002404:	9b03      	ldr	r3, [sp, #12]
 8002406:	2301      	movs	r3, #1
 8002408:	9300      	str	r3, [sp, #0]
 800240a:	2780      	movs	r7, #128	@ 0x80
 800240c:	4e3a      	ldr	r6, [pc, #232]	@ (80024f8 <HAL_RCCEx_PeriphCLKConfig+0x11c>)
 800240e:	007f      	lsls	r7, r7, #1
 8002410:	6833      	ldr	r3, [r6, #0]
 8002412:	423b      	tst	r3, r7
 8002414:	d034      	beq.n	8002480 <HAL_RCCEx_PeriphCLKConfig+0xa4>
 8002416:	6a21      	ldr	r1, [r4, #32]
 8002418:	22c0      	movs	r2, #192	@ 0xc0
 800241a:	0008      	movs	r0, r1
 800241c:	0092      	lsls	r2, r2, #2
 800241e:	686b      	ldr	r3, [r5, #4]
 8002420:	4e36      	ldr	r6, [pc, #216]	@ (80024fc <HAL_RCCEx_PeriphCLKConfig+0x120>)
 8002422:	4010      	ands	r0, r2
 8002424:	4211      	tst	r1, r2
 8002426:	d13d      	bne.n	80024a4 <HAL_RCCEx_PeriphCLKConfig+0xc8>
 8002428:	6a23      	ldr	r3, [r4, #32]
 800242a:	686a      	ldr	r2, [r5, #4]
 800242c:	4033      	ands	r3, r6
 800242e:	4313      	orrs	r3, r2
 8002430:	6223      	str	r3, [r4, #32]
 8002432:	9b00      	ldr	r3, [sp, #0]
 8002434:	2b01      	cmp	r3, #1
 8002436:	d103      	bne.n	8002440 <HAL_RCCEx_PeriphCLKConfig+0x64>
 8002438:	69e3      	ldr	r3, [r4, #28]
 800243a:	4a31      	ldr	r2, [pc, #196]	@ (8002500 <HAL_RCCEx_PeriphCLKConfig+0x124>)
 800243c:	4013      	ands	r3, r2
 800243e:	61e3      	str	r3, [r4, #28]
 8002440:	682b      	ldr	r3, [r5, #0]
 8002442:	07da      	lsls	r2, r3, #31
 8002444:	d506      	bpl.n	8002454 <HAL_RCCEx_PeriphCLKConfig+0x78>
 8002446:	2003      	movs	r0, #3
 8002448:	492a      	ldr	r1, [pc, #168]	@ (80024f4 <HAL_RCCEx_PeriphCLKConfig+0x118>)
 800244a:	6b0a      	ldr	r2, [r1, #48]	@ 0x30
 800244c:	4382      	bics	r2, r0
 800244e:	68a8      	ldr	r0, [r5, #8]
 8002450:	4302      	orrs	r2, r0
 8002452:	630a      	str	r2, [r1, #48]	@ 0x30
 8002454:	069a      	lsls	r2, r3, #26
 8002456:	d506      	bpl.n	8002466 <HAL_RCCEx_PeriphCLKConfig+0x8a>
 8002458:	2010      	movs	r0, #16
 800245a:	4926      	ldr	r1, [pc, #152]	@ (80024f4 <HAL_RCCEx_PeriphCLKConfig+0x118>)
 800245c:	6b0a      	ldr	r2, [r1, #48]	@ 0x30
 800245e:	4382      	bics	r2, r0
 8002460:	68e8      	ldr	r0, [r5, #12]
 8002462:	4302      	orrs	r2, r0
 8002464:	630a      	str	r2, [r1, #48]	@ 0x30
 8002466:	039a      	lsls	r2, r3, #14
 8002468:	d506      	bpl.n	8002478 <HAL_RCCEx_PeriphCLKConfig+0x9c>
 800246a:	2080      	movs	r0, #128	@ 0x80
 800246c:	4921      	ldr	r1, [pc, #132]	@ (80024f4 <HAL_RCCEx_PeriphCLKConfig+0x118>)
 800246e:	6b0a      	ldr	r2, [r1, #48]	@ 0x30
 8002470:	4382      	bics	r2, r0
 8002472:	6968      	ldr	r0, [r5, #20]
 8002474:	4302      	orrs	r2, r0
 8002476:	630a      	str	r2, [r1, #48]	@ 0x30
 8002478:	055b      	lsls	r3, r3, #21
 800247a:	d433      	bmi.n	80024e4 <HAL_RCCEx_PeriphCLKConfig+0x108>
 800247c:	2000      	movs	r0, #0
 800247e:	e00f      	b.n	80024a0 <HAL_RCCEx_PeriphCLKConfig+0xc4>
 8002480:	6833      	ldr	r3, [r6, #0]
 8002482:	433b      	orrs	r3, r7
 8002484:	6033      	str	r3, [r6, #0]
 8002486:	f7fe f9f1 	bl	800086c <HAL_GetTick>
 800248a:	9001      	str	r0, [sp, #4]
 800248c:	6833      	ldr	r3, [r6, #0]
 800248e:	423b      	tst	r3, r7
 8002490:	d1c1      	bne.n	8002416 <HAL_RCCEx_PeriphCLKConfig+0x3a>
 8002492:	f7fe f9eb 	bl	800086c <HAL_GetTick>
 8002496:	9b01      	ldr	r3, [sp, #4]
 8002498:	1ac0      	subs	r0, r0, r3
 800249a:	2864      	cmp	r0, #100	@ 0x64
 800249c:	d9f6      	bls.n	800248c <HAL_RCCEx_PeriphCLKConfig+0xb0>
 800249e:	2003      	movs	r0, #3
 80024a0:	b005      	add	sp, #20
 80024a2:	bdf0      	pop	{r4, r5, r6, r7, pc}
 80024a4:	4013      	ands	r3, r2
 80024a6:	4283      	cmp	r3, r0
 80024a8:	d0be      	beq.n	8002428 <HAL_RCCEx_PeriphCLKConfig+0x4c>
 80024aa:	2280      	movs	r2, #128	@ 0x80
 80024ac:	6a23      	ldr	r3, [r4, #32]
 80024ae:	6a20      	ldr	r0, [r4, #32]
 80024b0:	0019      	movs	r1, r3
 80024b2:	0252      	lsls	r2, r2, #9
 80024b4:	4302      	orrs	r2, r0
 80024b6:	6222      	str	r2, [r4, #32]
 80024b8:	6a22      	ldr	r2, [r4, #32]
 80024ba:	4812      	ldr	r0, [pc, #72]	@ (8002504 <HAL_RCCEx_PeriphCLKConfig+0x128>)
 80024bc:	4031      	ands	r1, r6
 80024be:	4002      	ands	r2, r0
 80024c0:	6222      	str	r2, [r4, #32]
 80024c2:	6221      	str	r1, [r4, #32]
 80024c4:	07db      	lsls	r3, r3, #31
 80024c6:	d5af      	bpl.n	8002428 <HAL_RCCEx_PeriphCLKConfig+0x4c>
 80024c8:	f7fe f9d0 	bl	800086c <HAL_GetTick>
 80024cc:	0007      	movs	r7, r0
 80024ce:	2202      	movs	r2, #2
 80024d0:	6a23      	ldr	r3, [r4, #32]
 80024d2:	4213      	tst	r3, r2
 80024d4:	d1a8      	bne.n	8002428 <HAL_RCCEx_PeriphCLKConfig+0x4c>
 80024d6:	f7fe f9c9 	bl	800086c <HAL_GetTick>
 80024da:	4b0b      	ldr	r3, [pc, #44]	@ (8002508 <HAL_RCCEx_PeriphCLKConfig+0x12c>)
 80024dc:	1bc0      	subs	r0, r0, r7
 80024de:	4298      	cmp	r0, r3
 80024e0:	d9f5      	bls.n	80024ce <HAL_RCCEx_PeriphCLKConfig+0xf2>
 80024e2:	e7dc      	b.n	800249e <HAL_RCCEx_PeriphCLKConfig+0xc2>
 80024e4:	2140      	movs	r1, #64	@ 0x40
 80024e6:	4a03      	ldr	r2, [pc, #12]	@ (80024f4 <HAL_RCCEx_PeriphCLKConfig+0x118>)
 80024e8:	6b13      	ldr	r3, [r2, #48]	@ 0x30
 80024ea:	438b      	bics	r3, r1
 80024ec:	6929      	ldr	r1, [r5, #16]
 80024ee:	430b      	orrs	r3, r1
 80024f0:	6313      	str	r3, [r2, #48]	@ 0x30
 80024f2:	e7c3      	b.n	800247c <HAL_RCCEx_PeriphCLKConfig+0xa0>
 80024f4:	40021000 	.word	0x40021000
 80024f8:	40007000 	.word	0x40007000
 80024fc:	fffffcff 	.word	0xfffffcff
 8002500:	efffffff 	.word	0xefffffff
 8002504:	fffeffff 	.word	0xfffeffff
 8002508:	00001388 	.word	0x00001388

0800250c <HAL_SPI_Init>:
 800250c:	b5f8      	push	{r3, r4, r5, r6, r7, lr}
 800250e:	0004      	movs	r4, r0
 8002510:	2001      	movs	r0, #1
 8002512:	2c00      	cmp	r4, #0
 8002514:	d067      	beq.n	80025e6 <HAL_SPI_Init+0xda>
 8002516:	6a63      	ldr	r3, [r4, #36]	@ 0x24
 8002518:	2b00      	cmp	r3, #0
 800251a:	d165      	bne.n	80025e8 <HAL_SPI_Init+0xdc>
 800251c:	2282      	movs	r2, #130	@ 0x82
 800251e:	6861      	ldr	r1, [r4, #4]
 8002520:	0052      	lsls	r2, r2, #1
 8002522:	4291      	cmp	r1, r2
 8002524:	d000      	beq.n	8002528 <HAL_SPI_Init+0x1c>
 8002526:	61e3      	str	r3, [r4, #28]
 8002528:	2300      	movs	r3, #0
 800252a:	0025      	movs	r5, r4
 800252c:	62a3      	str	r3, [r4, #40]	@ 0x28
 800252e:	355d      	adds	r5, #93	@ 0x5d
 8002530:	782b      	ldrb	r3, [r5, #0]
 8002532:	b2da      	uxtb	r2, r3
 8002534:	2b00      	cmp	r3, #0
 8002536:	d105      	bne.n	8002544 <HAL_SPI_Init+0x38>
 8002538:	0023      	movs	r3, r4
 800253a:	335c      	adds	r3, #92	@ 0x5c
 800253c:	0020      	movs	r0, r4
 800253e:	701a      	strb	r2, [r3, #0]
 8002540:	f7fe f84e 	bl	80005e0 <HAL_SPI_MspInit>
 8002544:	2302      	movs	r3, #2
 8002546:	2240      	movs	r2, #64	@ 0x40
 8002548:	702b      	strb	r3, [r5, #0]
 800254a:	6821      	ldr	r1, [r4, #0]
 800254c:	68e6      	ldr	r6, [r4, #12]
 800254e:	680b      	ldr	r3, [r1, #0]
 8002550:	4393      	bics	r3, r2
 8002552:	22e0      	movs	r2, #224	@ 0xe0
 8002554:	600b      	str	r3, [r1, #0]
 8002556:	00d2      	lsls	r2, r2, #3
 8002558:	2300      	movs	r3, #0
 800255a:	4296      	cmp	r6, r2
 800255c:	d948      	bls.n	80025f0 <HAL_SPI_Init+0xe4>
 800255e:	22f0      	movs	r2, #240	@ 0xf0
 8002560:	0018      	movs	r0, r3
 8002562:	0112      	lsls	r2, r2, #4
 8002564:	4296      	cmp	r6, r2
 8002566:	d000      	beq.n	800256a <HAL_SPI_Init+0x5e>
 8002568:	62a3      	str	r3, [r4, #40]	@ 0x28
 800256a:	2282      	movs	r2, #130	@ 0x82
 800256c:	2784      	movs	r7, #132	@ 0x84
 800256e:	6863      	ldr	r3, [r4, #4]
 8002570:	0052      	lsls	r2, r2, #1
 8002572:	4013      	ands	r3, r2
 8002574:	68a2      	ldr	r2, [r4, #8]
 8002576:	023f      	lsls	r7, r7, #8
 8002578:	403a      	ands	r2, r7
 800257a:	2702      	movs	r7, #2
 800257c:	4313      	orrs	r3, r2
 800257e:	6922      	ldr	r2, [r4, #16]
 8002580:	69a5      	ldr	r5, [r4, #24]
 8002582:	403a      	ands	r2, r7
 8002584:	4313      	orrs	r3, r2
 8002586:	2201      	movs	r2, #1
 8002588:	6967      	ldr	r7, [r4, #20]
 800258a:	4017      	ands	r7, r2
 800258c:	433b      	orrs	r3, r7
 800258e:	2780      	movs	r7, #128	@ 0x80
 8002590:	00bf      	lsls	r7, r7, #2
 8002592:	402f      	ands	r7, r5
 8002594:	433b      	orrs	r3, r7
 8002596:	69e7      	ldr	r7, [r4, #28]
 8002598:	3237      	adds	r2, #55	@ 0x37
 800259a:	4017      	ands	r7, r2
 800259c:	433b      	orrs	r3, r7
 800259e:	6a27      	ldr	r7, [r4, #32]
 80025a0:	3248      	adds	r2, #72	@ 0x48
 80025a2:	4017      	ands	r7, r2
 80025a4:	2280      	movs	r2, #128	@ 0x80
 80025a6:	433b      	orrs	r3, r7
 80025a8:	6aa7      	ldr	r7, [r4, #40]	@ 0x28
 80025aa:	0192      	lsls	r2, r2, #6
 80025ac:	4017      	ands	r7, r2
 80025ae:	433b      	orrs	r3, r7
 80025b0:	2710      	movs	r7, #16
 80025b2:	2208      	movs	r2, #8
 80025b4:	600b      	str	r3, [r1, #0]
 80025b6:	6a63      	ldr	r3, [r4, #36]	@ 0x24
 80025b8:	0c2d      	lsrs	r5, r5, #16
 80025ba:	403b      	ands	r3, r7
 80025bc:	6b67      	ldr	r7, [r4, #52]	@ 0x34
 80025be:	4017      	ands	r7, r2
 80025c0:	433b      	orrs	r3, r7
 80025c2:	27f0      	movs	r7, #240	@ 0xf0
 80025c4:	013f      	lsls	r7, r7, #4
 80025c6:	403e      	ands	r6, r7
 80025c8:	4333      	orrs	r3, r6
 80025ca:	2604      	movs	r6, #4
 80025cc:	4035      	ands	r5, r6
 80025ce:	432b      	orrs	r3, r5
 80025d0:	4303      	orrs	r3, r0
 80025d2:	604b      	str	r3, [r1, #4]
 80025d4:	69cb      	ldr	r3, [r1, #28]
 80025d6:	4808      	ldr	r0, [pc, #32]	@ (80025f8 <HAL_SPI_Init+0xec>)
 80025d8:	4003      	ands	r3, r0
 80025da:	2000      	movs	r0, #0
 80025dc:	61cb      	str	r3, [r1, #28]
 80025de:	2301      	movs	r3, #1
 80025e0:	6620      	str	r0, [r4, #96]	@ 0x60
 80025e2:	345d      	adds	r4, #93	@ 0x5d
 80025e4:	7023      	strb	r3, [r4, #0]
 80025e6:	bdf8      	pop	{r3, r4, r5, r6, r7, pc}
 80025e8:	2300      	movs	r3, #0
 80025ea:	6123      	str	r3, [r4, #16]
 80025ec:	6163      	str	r3, [r4, #20]
 80025ee:	e79b      	b.n	8002528 <HAL_SPI_Init+0x1c>
 80025f0:	2080      	movs	r0, #128	@ 0x80
 80025f2:	0140      	lsls	r0, r0, #5
 80025f4:	e7b6      	b.n	8002564 <HAL_SPI_Init+0x58>
 80025f6:	46c0      	nop			@ (mov r8, r8)
 80025f8:	fffff7ff 	.word	0xfffff7ff

080025fc <HAL_TIM_Base_Start_IT>:
 80025fc:	0001      	movs	r1, r0
 80025fe:	0003      	movs	r3, r0
 8002600:	2001      	movs	r0, #1
 8002602:	b510      	push	{r4, lr}
 8002604:	313d      	adds	r1, #61	@ 0x3d
 8002606:	780c      	ldrb	r4, [r1, #0]
 8002608:	b2e2      	uxtb	r2, r4
 800260a:	4284      	cmp	r4, r0
 800260c:	d119      	bne.n	8002642 <HAL_TIM_Base_Start_IT+0x46>
 800260e:	1800      	adds	r0, r0, r0
 8002610:	7008      	strb	r0, [r1, #0]
 8002612:	681b      	ldr	r3, [r3, #0]
 8002614:	68d9      	ldr	r1, [r3, #12]
 8002616:	4311      	orrs	r1, r2
 8002618:	60d9      	str	r1, [r3, #12]
 800261a:	490b      	ldr	r1, [pc, #44]	@ (8002648 <HAL_TIM_Base_Start_IT+0x4c>)
 800261c:	428b      	cmp	r3, r1
 800261e:	d006      	beq.n	800262e <HAL_TIM_Base_Start_IT+0x32>
 8002620:	2180      	movs	r1, #128	@ 0x80
 8002622:	05c9      	lsls	r1, r1, #23
 8002624:	428b      	cmp	r3, r1
 8002626:	d002      	beq.n	800262e <HAL_TIM_Base_Start_IT+0x32>
 8002628:	4908      	ldr	r1, [pc, #32]	@ (800264c <HAL_TIM_Base_Start_IT+0x50>)
 800262a:	428b      	cmp	r3, r1
 800262c:	d10a      	bne.n	8002644 <HAL_TIM_Base_Start_IT+0x48>
 800262e:	2107      	movs	r1, #7
 8002630:	689a      	ldr	r2, [r3, #8]
 8002632:	400a      	ands	r2, r1
 8002634:	2a06      	cmp	r2, #6
 8002636:	d003      	beq.n	8002640 <HAL_TIM_Base_Start_IT+0x44>
 8002638:	2201      	movs	r2, #1
 800263a:	6819      	ldr	r1, [r3, #0]
 800263c:	430a      	orrs	r2, r1
 800263e:	601a      	str	r2, [r3, #0]
 8002640:	2000      	movs	r0, #0
 8002642:	bd10      	pop	{r4, pc}
 8002644:	6819      	ldr	r1, [r3, #0]
 8002646:	e7f9      	b.n	800263c <HAL_TIM_Base_Start_IT+0x40>
 8002648:	40012c00 	.word	0x40012c00
 800264c:	40000400 	.word	0x40000400

08002650 <HAL_TIM_PeriodElapsedCallback>:
 8002650:	4770      	bx	lr

08002652 <HAL_TIM_OC_DelayElapsedCallback>:
 8002652:	4770      	bx	lr

08002654 <HAL_TIM_IC_CaptureCallback>:
 8002654:	4770      	bx	lr

08002656 <HAL_TIM_PWM_PulseFinishedCallback>:
 8002656:	4770      	bx	lr

08002658 <HAL_TIM_TriggerCallback>:
 8002658:	4770      	bx	lr

0800265a <HAL_TIM_IRQHandler>:
 800265a:	2202      	movs	r2, #2
 800265c:	6803      	ldr	r3, [r0, #0]
 800265e:	b570      	push	{r4, r5, r6, lr}
 8002660:	68dd      	ldr	r5, [r3, #12]
 8002662:	691e      	ldr	r6, [r3, #16]
 8002664:	0004      	movs	r4, r0
 8002666:	4216      	tst	r6, r2
 8002668:	d00d      	beq.n	8002686 <HAL_TIM_IRQHandler+0x2c>
 800266a:	4215      	tst	r5, r2
 800266c:	d00b      	beq.n	8002686 <HAL_TIM_IRQHandler+0x2c>
 800266e:	3a05      	subs	r2, #5
 8002670:	611a      	str	r2, [r3, #16]
 8002672:	3204      	adds	r2, #4
 8002674:	7702      	strb	r2, [r0, #28]
 8002676:	699b      	ldr	r3, [r3, #24]
 8002678:	079b      	lsls	r3, r3, #30
 800267a:	d100      	bne.n	800267e <HAL_TIM_IRQHandler+0x24>
 800267c:	e071      	b.n	8002762 <HAL_TIM_IRQHandler+0x108>
 800267e:	f7ff ffe9 	bl	8002654 <HAL_TIM_IC_CaptureCallback>
 8002682:	2300      	movs	r3, #0
 8002684:	7723      	strb	r3, [r4, #28]
 8002686:	2304      	movs	r3, #4
 8002688:	421e      	tst	r6, r3
 800268a:	d011      	beq.n	80026b0 <HAL_TIM_IRQHandler+0x56>
 800268c:	421d      	tst	r5, r3
 800268e:	d00f      	beq.n	80026b0 <HAL_TIM_IRQHandler+0x56>
 8002690:	2205      	movs	r2, #5
 8002692:	6823      	ldr	r3, [r4, #0]
 8002694:	4252      	negs	r2, r2
 8002696:	611a      	str	r2, [r3, #16]
 8002698:	3207      	adds	r2, #7
 800269a:	7722      	strb	r2, [r4, #28]
 800269c:	699a      	ldr	r2, [r3, #24]
 800269e:	23c0      	movs	r3, #192	@ 0xc0
 80026a0:	009b      	lsls	r3, r3, #2
 80026a2:	0020      	movs	r0, r4
 80026a4:	421a      	tst	r2, r3
 80026a6:	d062      	beq.n	800276e <HAL_TIM_IRQHandler+0x114>
 80026a8:	f7ff ffd4 	bl	8002654 <HAL_TIM_IC_CaptureCallback>
 80026ac:	2300      	movs	r3, #0
 80026ae:	7723      	strb	r3, [r4, #28]
 80026b0:	2308      	movs	r3, #8
 80026b2:	421e      	tst	r6, r3
 80026b4:	d00f      	beq.n	80026d6 <HAL_TIM_IRQHandler+0x7c>
 80026b6:	421d      	tst	r5, r3
 80026b8:	d00d      	beq.n	80026d6 <HAL_TIM_IRQHandler+0x7c>
 80026ba:	2209      	movs	r2, #9
 80026bc:	6823      	ldr	r3, [r4, #0]
 80026be:	4252      	negs	r2, r2
 80026c0:	611a      	str	r2, [r3, #16]
 80026c2:	320d      	adds	r2, #13
 80026c4:	7722      	strb	r2, [r4, #28]
 80026c6:	69db      	ldr	r3, [r3, #28]
 80026c8:	0020      	movs	r0, r4
 80026ca:	079b      	lsls	r3, r3, #30
 80026cc:	d055      	beq.n	800277a <HAL_TIM_IRQHandler+0x120>
 80026ce:	f7ff ffc1 	bl	8002654 <HAL_TIM_IC_CaptureCallback>
 80026d2:	2300      	movs	r3, #0
 80026d4:	7723      	strb	r3, [r4, #28]
 80026d6:	2310      	movs	r3, #16
 80026d8:	421e      	tst	r6, r3
 80026da:	d011      	beq.n	8002700 <HAL_TIM_IRQHandler+0xa6>
 80026dc:	421d      	tst	r5, r3
 80026de:	d00f      	beq.n	8002700 <HAL_TIM_IRQHandler+0xa6>
 80026e0:	2211      	movs	r2, #17
 80026e2:	6823      	ldr	r3, [r4, #0]
 80026e4:	4252      	negs	r2, r2
 80026e6:	611a      	str	r2, [r3, #16]
 80026e8:	3219      	adds	r2, #25
 80026ea:	7722      	strb	r2, [r4, #28]
 80026ec:	69da      	ldr	r2, [r3, #28]
 80026ee:	23c0      	movs	r3, #192	@ 0xc0
 80026f0:	009b      	lsls	r3, r3, #2
 80026f2:	0020      	movs	r0, r4
 80026f4:	421a      	tst	r2, r3
 80026f6:	d046      	beq.n	8002786 <HAL_TIM_IRQHandler+0x12c>
 80026f8:	f7ff ffac 	bl	8002654 <HAL_TIM_IC_CaptureCallback>
 80026fc:	2300      	movs	r3, #0
 80026fe:	7723      	strb	r3, [r4, #28]
 8002700:	2301      	movs	r3, #1
 8002702:	421e      	tst	r6, r3
 8002704:	d008      	beq.n	8002718 <HAL_TIM_IRQHandler+0xbe>
 8002706:	421d      	tst	r5, r3
 8002708:	d006      	beq.n	8002718 <HAL_TIM_IRQHandler+0xbe>
 800270a:	2202      	movs	r2, #2
 800270c:	6823      	ldr	r3, [r4, #0]
 800270e:	4252      	negs	r2, r2
 8002710:	0020      	movs	r0, r4
 8002712:	611a      	str	r2, [r3, #16]
 8002714:	f7ff ff9c 	bl	8002650 <HAL_TIM_PeriodElapsedCallback>
 8002718:	2380      	movs	r3, #128	@ 0x80
 800271a:	421e      	tst	r6, r3
 800271c:	d008      	beq.n	8002730 <HAL_TIM_IRQHandler+0xd6>
 800271e:	421d      	tst	r5, r3
 8002720:	d006      	beq.n	8002730 <HAL_TIM_IRQHandler+0xd6>
 8002722:	2281      	movs	r2, #129	@ 0x81
 8002724:	6823      	ldr	r3, [r4, #0]
 8002726:	4252      	negs	r2, r2
 8002728:	0020      	movs	r0, r4
 800272a:	611a      	str	r2, [r3, #16]
 800272c:	f000 f977 	bl	8002a1e <HAL_TIMEx_BreakCallback>
 8002730:	2340      	movs	r3, #64	@ 0x40
 8002732:	421e      	tst	r6, r3
 8002734:	d008      	beq.n	8002748 <HAL_TIM_IRQHandler+0xee>
 8002736:	421d      	tst	r5, r3
 8002738:	d006      	beq.n	8002748 <HAL_TIM_IRQHandler+0xee>
 800273a:	2241      	movs	r2, #65	@ 0x41
 800273c:	6823      	ldr	r3, [r4, #0]
 800273e:	4252      	negs	r2, r2
 8002740:	0020      	movs	r0, r4
 8002742:	611a      	str	r2, [r3, #16]
 8002744:	f7ff ff88 	bl	8002658 <HAL_TIM_TriggerCallback>
 8002748:	2320      	movs	r3, #32
 800274a:	421e      	tst	r6, r3
 800274c:	d008      	beq.n	8002760 <HAL_TIM_IRQHandler+0x106>
 800274e:	421d      	tst	r5, r3
 8002750:	d006      	beq.n	8002760 <HAL_TIM_IRQHandler+0x106>
 8002752:	2221      	movs	r2, #33	@ 0x21
 8002754:	6823      	ldr	r3, [r4, #0]
 8002756:	4252      	negs	r2, r2
 8002758:	0020      	movs	r0, r4
 800275a:	611a      	str	r2, [r3, #16]
 800275c:	f000 f95e 	bl	8002a1c <HAL_TIMEx_CommutCallback>
 8002760:	bd70      	pop	{r4, r5, r6, pc}
 8002762:	f7ff ff76 	bl	8002652 <HAL_TIM_OC_DelayElapsedCallback>
 8002766:	0020      	movs	r0, r4
 8002768:	f7ff ff75 	bl	8002656 <HAL_TIM_PWM_PulseFinishedCallback>
 800276c:	e789      	b.n	8002682 <HAL_TIM_IRQHandler+0x28>
 800276e:	f7ff ff70 	bl	8002652 <HAL_TIM_OC_DelayElapsedCallback>
 8002772:	0020      	movs	r0, r4
 8002774:	f7ff ff6f 	bl	8002656 <HAL_TIM_PWM_PulseFinishedCallback>
 8002778:	e798      	b.n	80026ac <HAL_TIM_IRQHandler+0x52>
 800277a:	f7ff ff6a 	bl	8002652 <HAL_TIM_OC_DelayElapsedCallback>
 800277e:	0020      	movs	r0, r4
 8002780:	f7ff ff69 	bl	8002656 <HAL_TIM_PWM_PulseFinishedCallback>
 8002784:	e7a5      	b.n	80026d2 <HAL_TIM_IRQHandler+0x78>
 8002786:	f7ff ff64 	bl	8002652 <HAL_TIM_OC_DelayElapsedCallback>
 800278a:	0020      	movs	r0, r4
 800278c:	f7ff ff63 	bl	8002656 <HAL_TIM_PWM_PulseFinishedCallback>
 8002790:	e7b4      	b.n	80026fc <HAL_TIM_IRQHandler+0xa2>
	...

08002794 <TIM_Base_SetConfig>:
 8002794:	4a20      	ldr	r2, [pc, #128]	@ (8002818 <TIM_Base_SetConfig+0x84>)
 8002796:	b510      	push	{r4, lr}
 8002798:	6803      	ldr	r3, [r0, #0]
 800279a:	4290      	cmp	r0, r2
 800279c:	d006      	beq.n	80027ac <TIM_Base_SetConfig+0x18>
 800279e:	2480      	movs	r4, #128	@ 0x80
 80027a0:	05e4      	lsls	r4, r4, #23
 80027a2:	42a0      	cmp	r0, r4
 80027a4:	d002      	beq.n	80027ac <TIM_Base_SetConfig+0x18>
 80027a6:	4c1d      	ldr	r4, [pc, #116]	@ (800281c <TIM_Base_SetConfig+0x88>)
 80027a8:	42a0      	cmp	r0, r4
 80027aa:	d10c      	bne.n	80027c6 <TIM_Base_SetConfig+0x32>
 80027ac:	2470      	movs	r4, #112	@ 0x70
 80027ae:	43a3      	bics	r3, r4
 80027b0:	684c      	ldr	r4, [r1, #4]
 80027b2:	4323      	orrs	r3, r4
 80027b4:	4290      	cmp	r0, r2
 80027b6:	d00f      	beq.n	80027d8 <TIM_Base_SetConfig+0x44>
 80027b8:	2480      	movs	r4, #128	@ 0x80
 80027ba:	05e4      	lsls	r4, r4, #23
 80027bc:	42a0      	cmp	r0, r4
 80027be:	d00b      	beq.n	80027d8 <TIM_Base_SetConfig+0x44>
 80027c0:	4c16      	ldr	r4, [pc, #88]	@ (800281c <TIM_Base_SetConfig+0x88>)
 80027c2:	42a0      	cmp	r0, r4
 80027c4:	d008      	beq.n	80027d8 <TIM_Base_SetConfig+0x44>
 80027c6:	4c16      	ldr	r4, [pc, #88]	@ (8002820 <TIM_Base_SetConfig+0x8c>)
 80027c8:	42a0      	cmp	r0, r4
 80027ca:	d005      	beq.n	80027d8 <TIM_Base_SetConfig+0x44>
 80027cc:	4c15      	ldr	r4, [pc, #84]	@ (8002824 <TIM_Base_SetConfig+0x90>)
 80027ce:	42a0      	cmp	r0, r4
 80027d0:	d002      	beq.n	80027d8 <TIM_Base_SetConfig+0x44>
 80027d2:	4c15      	ldr	r4, [pc, #84]	@ (8002828 <TIM_Base_SetConfig+0x94>)
 80027d4:	42a0      	cmp	r0, r4
 80027d6:	d103      	bne.n	80027e0 <TIM_Base_SetConfig+0x4c>
 80027d8:	4c14      	ldr	r4, [pc, #80]	@ (800282c <TIM_Base_SetConfig+0x98>)
 80027da:	401c      	ands	r4, r3
 80027dc:	68cb      	ldr	r3, [r1, #12]
 80027de:	4323      	orrs	r3, r4
 80027e0:	2480      	movs	r4, #128	@ 0x80
 80027e2:	43a3      	bics	r3, r4
 80027e4:	694c      	ldr	r4, [r1, #20]
 80027e6:	4323      	orrs	r3, r4
 80027e8:	6003      	str	r3, [r0, #0]
 80027ea:	688b      	ldr	r3, [r1, #8]
 80027ec:	62c3      	str	r3, [r0, #44]	@ 0x2c
 80027ee:	680b      	ldr	r3, [r1, #0]
 80027f0:	6283      	str	r3, [r0, #40]	@ 0x28
 80027f2:	4290      	cmp	r0, r2
 80027f4:	d005      	beq.n	8002802 <TIM_Base_SetConfig+0x6e>
 80027f6:	4b0b      	ldr	r3, [pc, #44]	@ (8002824 <TIM_Base_SetConfig+0x90>)
 80027f8:	4298      	cmp	r0, r3
 80027fa:	d002      	beq.n	8002802 <TIM_Base_SetConfig+0x6e>
 80027fc:	4b0a      	ldr	r3, [pc, #40]	@ (8002828 <TIM_Base_SetConfig+0x94>)
 80027fe:	4298      	cmp	r0, r3
 8002800:	d101      	bne.n	8002806 <TIM_Base_SetConfig+0x72>
 8002802:	690b      	ldr	r3, [r1, #16]
 8002804:	6303      	str	r3, [r0, #48]	@ 0x30
 8002806:	2201      	movs	r2, #1
 8002808:	6142      	str	r2, [r0, #20]
 800280a:	6903      	ldr	r3, [r0, #16]
 800280c:	4213      	tst	r3, r2
 800280e:	d002      	beq.n	8002816 <TIM_Base_SetConfig+0x82>
 8002810:	6903      	ldr	r3, [r0, #16]
 8002812:	4393      	bics	r3, r2
 8002814:	6103      	str	r3, [r0, #16]
 8002816:	bd10      	pop	{r4, pc}
 8002818:	40012c00 	.word	0x40012c00
 800281c:	40000400 	.word	0x40000400
 8002820:	40002000 	.word	0x40002000
 8002824:	40014400 	.word	0x40014400
 8002828:	40014800 	.word	0x40014800
 800282c:	fffffcff 	.word	0xfffffcff

08002830 <HAL_TIM_Base_Init>:
 8002830:	b570      	push	{r4, r5, r6, lr}
 8002832:	0004      	movs	r4, r0
 8002834:	2001      	movs	r0, #1
 8002836:	2c00      	cmp	r4, #0
 8002838:	d021      	beq.n	800287e <HAL_TIM_Base_Init+0x4e>
 800283a:	0025      	movs	r5, r4
 800283c:	353d      	adds	r5, #61	@ 0x3d
 800283e:	782b      	ldrb	r3, [r5, #0]
 8002840:	b2da      	uxtb	r2, r3
 8002842:	2b00      	cmp	r3, #0
 8002844:	d105      	bne.n	8002852 <HAL_TIM_Base_Init+0x22>
 8002846:	0023      	movs	r3, r4
 8002848:	333c      	adds	r3, #60	@ 0x3c
 800284a:	0020      	movs	r0, r4
 800284c:	701a      	strb	r2, [r3, #0]
 800284e:	f7fd fef9 	bl	8000644 <HAL_TIM_Base_MspInit>
 8002852:	2302      	movs	r3, #2
 8002854:	702b      	strb	r3, [r5, #0]
 8002856:	6820      	ldr	r0, [r4, #0]
 8002858:	1d21      	adds	r1, r4, #4
 800285a:	f7ff ff9b 	bl	8002794 <TIM_Base_SetConfig>
 800285e:	0022      	movs	r2, r4
 8002860:	2301      	movs	r3, #1
 8002862:	2000      	movs	r0, #0
 8002864:	3246      	adds	r2, #70	@ 0x46
 8002866:	7013      	strb	r3, [r2, #0]
 8002868:	3445      	adds	r4, #69	@ 0x45
 800286a:	3a08      	subs	r2, #8
 800286c:	7013      	strb	r3, [r2, #0]
 800286e:	7053      	strb	r3, [r2, #1]
 8002870:	7093      	strb	r3, [r2, #2]
 8002872:	70d3      	strb	r3, [r2, #3]
 8002874:	7113      	strb	r3, [r2, #4]
 8002876:	7153      	strb	r3, [r2, #5]
 8002878:	7193      	strb	r3, [r2, #6]
 800287a:	7023      	strb	r3, [r4, #0]
 800287c:	702b      	strb	r3, [r5, #0]
 800287e:	bd70      	pop	{r4, r5, r6, pc}

08002880 <TIM_ETR_SetConfig>:
 8002880:	b530      	push	{r4, r5, lr}
 8002882:	6884      	ldr	r4, [r0, #8]
 8002884:	4d03      	ldr	r5, [pc, #12]	@ (8002894 <TIM_ETR_SetConfig+0x14>)
 8002886:	430a      	orrs	r2, r1
 8002888:	021b      	lsls	r3, r3, #8
 800288a:	402c      	ands	r4, r5
 800288c:	4313      	orrs	r3, r2
 800288e:	4323      	orrs	r3, r4
 8002890:	6083      	str	r3, [r0, #8]
 8002892:	bd30      	pop	{r4, r5, pc}
 8002894:	ffff00ff 	.word	0xffff00ff

08002898 <HAL_TIM_ConfigClockSource>:
 8002898:	b5f8      	push	{r3, r4, r5, r6, r7, lr}
 800289a:	0005      	movs	r5, r0
 800289c:	2202      	movs	r2, #2
 800289e:	353c      	adds	r5, #60	@ 0x3c
 80028a0:	782c      	ldrb	r4, [r5, #0]
 80028a2:	0003      	movs	r3, r0
 80028a4:	0010      	movs	r0, r2
 80028a6:	2c01      	cmp	r4, #1
 80028a8:	d01b      	beq.n	80028e2 <HAL_TIM_ConfigClockSource+0x4a>
 80028aa:	001e      	movs	r6, r3
 80028ac:	3801      	subs	r0, #1
 80028ae:	363d      	adds	r6, #61	@ 0x3d
 80028b0:	7028      	strb	r0, [r5, #0]
 80028b2:	7032      	strb	r2, [r6, #0]
 80028b4:	681c      	ldr	r4, [r3, #0]
 80028b6:	4a41      	ldr	r2, [pc, #260]	@ (80029bc <HAL_TIM_ConfigClockSource+0x124>)
 80028b8:	68a3      	ldr	r3, [r4, #8]
 80028ba:	4013      	ands	r3, r2
 80028bc:	60a3      	str	r3, [r4, #8]
 80028be:	680b      	ldr	r3, [r1, #0]
 80028c0:	2b60      	cmp	r3, #96	@ 0x60
 80028c2:	d04e      	beq.n	8002962 <HAL_TIM_ConfigClockSource+0xca>
 80028c4:	d82d      	bhi.n	8002922 <HAL_TIM_ConfigClockSource+0x8a>
 80028c6:	2b40      	cmp	r3, #64	@ 0x40
 80028c8:	d062      	beq.n	8002990 <HAL_TIM_ConfigClockSource+0xf8>
 80028ca:	d813      	bhi.n	80028f4 <HAL_TIM_ConfigClockSource+0x5c>
 80028cc:	2b20      	cmp	r3, #32
 80028ce:	d00b      	beq.n	80028e8 <HAL_TIM_ConfigClockSource+0x50>
 80028d0:	d808      	bhi.n	80028e4 <HAL_TIM_ConfigClockSource+0x4c>
 80028d2:	2210      	movs	r2, #16
 80028d4:	0019      	movs	r1, r3
 80028d6:	4391      	bics	r1, r2
 80028d8:	d006      	beq.n	80028e8 <HAL_TIM_ConfigClockSource+0x50>
 80028da:	2301      	movs	r3, #1
 80028dc:	7033      	strb	r3, [r6, #0]
 80028de:	2300      	movs	r3, #0
 80028e0:	702b      	strb	r3, [r5, #0]
 80028e2:	bdf8      	pop	{r3, r4, r5, r6, r7, pc}
 80028e4:	2b30      	cmp	r3, #48	@ 0x30
 80028e6:	d1f8      	bne.n	80028da <HAL_TIM_ConfigClockSource+0x42>
 80028e8:	2170      	movs	r1, #112	@ 0x70
 80028ea:	68a2      	ldr	r2, [r4, #8]
 80028ec:	438a      	bics	r2, r1
 80028ee:	4313      	orrs	r3, r2
 80028f0:	2207      	movs	r2, #7
 80028f2:	e028      	b.n	8002946 <HAL_TIM_ConfigClockSource+0xae>
 80028f4:	2b50      	cmp	r3, #80	@ 0x50
 80028f6:	d1f0      	bne.n	80028da <HAL_TIM_ConfigClockSource+0x42>
 80028f8:	684a      	ldr	r2, [r1, #4]
 80028fa:	68cb      	ldr	r3, [r1, #12]
 80028fc:	6a21      	ldr	r1, [r4, #32]
 80028fe:	6a27      	ldr	r7, [r4, #32]
 8002900:	011b      	lsls	r3, r3, #4
 8002902:	4387      	bics	r7, r0
 8002904:	6227      	str	r7, [r4, #32]
 8002906:	27f0      	movs	r7, #240	@ 0xf0
 8002908:	69a0      	ldr	r0, [r4, #24]
 800290a:	43b8      	bics	r0, r7
 800290c:	4303      	orrs	r3, r0
 800290e:	200a      	movs	r0, #10
 8002910:	61a3      	str	r3, [r4, #24]
 8002912:	2370      	movs	r3, #112	@ 0x70
 8002914:	4381      	bics	r1, r0
 8002916:	430a      	orrs	r2, r1
 8002918:	6222      	str	r2, [r4, #32]
 800291a:	68a2      	ldr	r2, [r4, #8]
 800291c:	439a      	bics	r2, r3
 800291e:	3b19      	subs	r3, #25
 8002920:	e011      	b.n	8002946 <HAL_TIM_ConfigClockSource+0xae>
 8002922:	2280      	movs	r2, #128	@ 0x80
 8002924:	0152      	lsls	r2, r2, #5
 8002926:	4293      	cmp	r3, r2
 8002928:	d00f      	beq.n	800294a <HAL_TIM_ConfigClockSource+0xb2>
 800292a:	2280      	movs	r2, #128	@ 0x80
 800292c:	0192      	lsls	r2, r2, #6
 800292e:	4293      	cmp	r3, r2
 8002930:	d00d      	beq.n	800294e <HAL_TIM_ConfigClockSource+0xb6>
 8002932:	2b70      	cmp	r3, #112	@ 0x70
 8002934:	d1d1      	bne.n	80028da <HAL_TIM_ConfigClockSource+0x42>
 8002936:	68cb      	ldr	r3, [r1, #12]
 8002938:	684a      	ldr	r2, [r1, #4]
 800293a:	0020      	movs	r0, r4
 800293c:	6889      	ldr	r1, [r1, #8]
 800293e:	f7ff ff9f 	bl	8002880 <TIM_ETR_SetConfig>
 8002942:	2377      	movs	r3, #119	@ 0x77
 8002944:	68a2      	ldr	r2, [r4, #8]
 8002946:	4313      	orrs	r3, r2
 8002948:	60a3      	str	r3, [r4, #8]
 800294a:	2000      	movs	r0, #0
 800294c:	e7c5      	b.n	80028da <HAL_TIM_ConfigClockSource+0x42>
 800294e:	68cb      	ldr	r3, [r1, #12]
 8002950:	684a      	ldr	r2, [r1, #4]
 8002952:	0020      	movs	r0, r4
 8002954:	6889      	ldr	r1, [r1, #8]
 8002956:	f7ff ff93 	bl	8002880 <TIM_ETR_SetConfig>
 800295a:	2380      	movs	r3, #128	@ 0x80
 800295c:	68a2      	ldr	r2, [r4, #8]
 800295e:	01db      	lsls	r3, r3, #7
 8002960:	e7f1      	b.n	8002946 <HAL_TIM_ConfigClockSource+0xae>
 8002962:	2710      	movs	r7, #16
 8002964:	684b      	ldr	r3, [r1, #4]
 8002966:	68ca      	ldr	r2, [r1, #12]
 8002968:	6a21      	ldr	r1, [r4, #32]
 800296a:	6a20      	ldr	r0, [r4, #32]
 800296c:	0312      	lsls	r2, r2, #12
 800296e:	43b8      	bics	r0, r7
 8002970:	6220      	str	r0, [r4, #32]
 8002972:	69a0      	ldr	r0, [r4, #24]
 8002974:	4f12      	ldr	r7, [pc, #72]	@ (80029c0 <HAL_TIM_ConfigClockSource+0x128>)
 8002976:	011b      	lsls	r3, r3, #4
 8002978:	4038      	ands	r0, r7
 800297a:	4302      	orrs	r2, r0
 800297c:	20a0      	movs	r0, #160	@ 0xa0
 800297e:	4381      	bics	r1, r0
 8002980:	430b      	orrs	r3, r1
 8002982:	61a2      	str	r2, [r4, #24]
 8002984:	6223      	str	r3, [r4, #32]
 8002986:	2370      	movs	r3, #112	@ 0x70
 8002988:	68a2      	ldr	r2, [r4, #8]
 800298a:	439a      	bics	r2, r3
 800298c:	3b09      	subs	r3, #9
 800298e:	e7da      	b.n	8002946 <HAL_TIM_ConfigClockSource+0xae>
 8002990:	684a      	ldr	r2, [r1, #4]
 8002992:	68cb      	ldr	r3, [r1, #12]
 8002994:	6a21      	ldr	r1, [r4, #32]
 8002996:	6a27      	ldr	r7, [r4, #32]
 8002998:	011b      	lsls	r3, r3, #4
 800299a:	4387      	bics	r7, r0
 800299c:	6227      	str	r7, [r4, #32]
 800299e:	27f0      	movs	r7, #240	@ 0xf0
 80029a0:	69a0      	ldr	r0, [r4, #24]
 80029a2:	43b8      	bics	r0, r7
 80029a4:	4303      	orrs	r3, r0
 80029a6:	200a      	movs	r0, #10
 80029a8:	61a3      	str	r3, [r4, #24]
 80029aa:	2370      	movs	r3, #112	@ 0x70
 80029ac:	4381      	bics	r1, r0
 80029ae:	430a      	orrs	r2, r1
 80029b0:	6222      	str	r2, [r4, #32]
 80029b2:	68a2      	ldr	r2, [r4, #8]
 80029b4:	439a      	bics	r2, r3
 80029b6:	3b29      	subs	r3, #41	@ 0x29
 80029b8:	e7c5      	b.n	8002946 <HAL_TIM_ConfigClockSource+0xae>
 80029ba:	46c0      	nop			@ (mov r8, r8)
 80029bc:	ffff0088 	.word	0xffff0088
 80029c0:	ffff0fff 	.word	0xffff0fff

080029c4 <HAL_TIMEx_MasterConfigSynchronization>:
 80029c4:	b570      	push	{r4, r5, r6, lr}
 80029c6:	0004      	movs	r4, r0
 80029c8:	2202      	movs	r2, #2
 80029ca:	343c      	adds	r4, #60	@ 0x3c
 80029cc:	7825      	ldrb	r5, [r4, #0]
 80029ce:	0003      	movs	r3, r0
 80029d0:	0010      	movs	r0, r2
 80029d2:	2d01      	cmp	r5, #1
 80029d4:	d01d      	beq.n	8002a12 <HAL_TIMEx_MasterConfigSynchronization+0x4e>
 80029d6:	001d      	movs	r5, r3
 80029d8:	2670      	movs	r6, #112	@ 0x70
 80029da:	353d      	adds	r5, #61	@ 0x3d
 80029dc:	702a      	strb	r2, [r5, #0]
 80029de:	681b      	ldr	r3, [r3, #0]
 80029e0:	6858      	ldr	r0, [r3, #4]
 80029e2:	689a      	ldr	r2, [r3, #8]
 80029e4:	43b0      	bics	r0, r6
 80029e6:	680e      	ldr	r6, [r1, #0]
 80029e8:	4330      	orrs	r0, r6
 80029ea:	6058      	str	r0, [r3, #4]
 80029ec:	4809      	ldr	r0, [pc, #36]	@ (8002a14 <HAL_TIMEx_MasterConfigSynchronization+0x50>)
 80029ee:	4283      	cmp	r3, r0
 80029f0:	d006      	beq.n	8002a00 <HAL_TIMEx_MasterConfigSynchronization+0x3c>
 80029f2:	2080      	movs	r0, #128	@ 0x80
 80029f4:	05c0      	lsls	r0, r0, #23
 80029f6:	4283      	cmp	r3, r0
 80029f8:	d002      	beq.n	8002a00 <HAL_TIMEx_MasterConfigSynchronization+0x3c>
 80029fa:	4807      	ldr	r0, [pc, #28]	@ (8002a18 <HAL_TIMEx_MasterConfigSynchronization+0x54>)
 80029fc:	4283      	cmp	r3, r0
 80029fe:	d104      	bne.n	8002a0a <HAL_TIMEx_MasterConfigSynchronization+0x46>
 8002a00:	2080      	movs	r0, #128	@ 0x80
 8002a02:	6849      	ldr	r1, [r1, #4]
 8002a04:	4382      	bics	r2, r0
 8002a06:	430a      	orrs	r2, r1
 8002a08:	609a      	str	r2, [r3, #8]
 8002a0a:	2301      	movs	r3, #1
 8002a0c:	2000      	movs	r0, #0
 8002a0e:	702b      	strb	r3, [r5, #0]
 8002a10:	7020      	strb	r0, [r4, #0]
 8002a12:	bd70      	pop	{r4, r5, r6, pc}
 8002a14:	40012c00 	.word	0x40012c00
 8002a18:	40000400 	.word	0x40000400

08002a1c <HAL_TIMEx_CommutCallback>:
 8002a1c:	4770      	bx	lr

08002a1e <HAL_TIMEx_BreakCallback>:
 8002a1e:	4770      	bx	lr

08002a20 <USB_EnableGlobalInt>:
 8002a20:	1d82      	adds	r2, r0, #6
 8002a22:	0003      	movs	r3, r0
 8002a24:	2000      	movs	r0, #0
 8002a26:	87d0      	strh	r0, [r2, #62]	@ 0x3e
 8002a28:	4a01      	ldr	r2, [pc, #4]	@ (8002a30 <USB_EnableGlobalInt+0x10>)
 8002a2a:	3302      	adds	r3, #2
 8002a2c:	87da      	strh	r2, [r3, #62]	@ 0x3e
 8002a2e:	4770      	bx	lr
 8002a30:	ffffbf80 	.word	0xffffbf80

08002a34 <USB_DisableGlobalInt>:
 8002a34:	3002      	adds	r0, #2
 8002a36:	8fc3      	ldrh	r3, [r0, #62]	@ 0x3e
 8002a38:	4a02      	ldr	r2, [pc, #8]	@ (8002a44 <USB_DisableGlobalInt+0x10>)
 8002a3a:	4013      	ands	r3, r2
 8002a3c:	87c3      	strh	r3, [r0, #62]	@ 0x3e
 8002a3e:	2000      	movs	r0, #0
 8002a40:	4770      	bx	lr
 8002a42:	46c0      	nop			@ (mov r8, r8)
 8002a44:	0000407f 	.word	0x0000407f

08002a48 <USB_DevInit>:
 8002a48:	1c82      	adds	r2, r0, #2
 8002a4a:	0003      	movs	r3, r0
 8002a4c:	2101      	movs	r1, #1
 8002a4e:	2000      	movs	r0, #0
 8002a50:	87d1      	strh	r1, [r2, #62]	@ 0x3e
 8002a52:	b082      	sub	sp, #8
 8002a54:	87d0      	strh	r0, [r2, #62]	@ 0x3e
 8002a56:	1d9a      	adds	r2, r3, #6
 8002a58:	3350      	adds	r3, #80	@ 0x50
 8002a5a:	87d0      	strh	r0, [r2, #62]	@ 0x3e
 8002a5c:	8018      	strh	r0, [r3, #0]
 8002a5e:	b002      	add	sp, #8
 8002a60:	4770      	bx	lr
	...

08002a64 <USB_ActivateEndpoint>:
 8002a64:	b5f7      	push	{r0, r1, r2, r4, r5, r6, r7, lr}
 8002a66:	780e      	ldrb	r6, [r1, #0]
 8002a68:	4a7a      	ldr	r2, [pc, #488]	@ (8002c54 <USB_ActivateEndpoint+0x1f0>)
 8002a6a:	00b3      	lsls	r3, r6, #2
 8002a6c:	18c3      	adds	r3, r0, r3
 8002a6e:	881c      	ldrh	r4, [r3, #0]
 8002a70:	78cf      	ldrb	r7, [r1, #3]
 8002a72:	4014      	ands	r4, r2
 8002a74:	2201      	movs	r2, #1
 8002a76:	0005      	movs	r5, r0
 8002a78:	9200      	str	r2, [sp, #0]
 8002a7a:	2f03      	cmp	r7, #3
 8002a7c:	d808      	bhi.n	8002a90 <USB_ActivateEndpoint+0x2c>
 8002a7e:	0038      	movs	r0, r7
 8002a80:	f7fd fb4a 	bl	8000118 <__gnu_thumb1_case_uqi>
 8002a84:	3c3f4202 	.word	0x3c3f4202
 8002a88:	2280      	movs	r2, #128	@ 0x80
 8002a8a:	0092      	lsls	r2, r2, #2
 8002a8c:	4314      	orrs	r4, r2
 8002a8e:	9700      	str	r7, [sp, #0]
 8002a90:	4a71      	ldr	r2, [pc, #452]	@ (8002c58 <USB_ActivateEndpoint+0x1f4>)
 8002a92:	4314      	orrs	r4, r2
 8002a94:	b2a4      	uxth	r4, r4
 8002a96:	801c      	strh	r4, [r3, #0]
 8002a98:	8818      	ldrh	r0, [r3, #0]
 8002a9a:	4c70      	ldr	r4, [pc, #448]	@ (8002c5c <USB_ActivateEndpoint+0x1f8>)
 8002a9c:	4020      	ands	r0, r4
 8002a9e:	4330      	orrs	r0, r6
 8002aa0:	4310      	orrs	r0, r2
 8002aa2:	b280      	uxth	r0, r0
 8002aa4:	8018      	strh	r0, [r3, #0]
 8002aa6:	00f0      	lsls	r0, r6, #3
 8002aa8:	4684      	mov	ip, r0
 8002aaa:	7b08      	ldrb	r0, [r1, #12]
 8002aac:	44ac      	add	ip, r5
 8002aae:	3550      	adds	r5, #80	@ 0x50
 8002ab0:	9501      	str	r5, [sp, #4]
 8002ab2:	2800      	cmp	r0, #0
 8002ab4:	d000      	beq.n	8002ab8 <USB_ActivateEndpoint+0x54>
 8002ab6:	e06b      	b.n	8002b90 <USB_ActivateEndpoint+0x12c>
 8002ab8:	88cd      	ldrh	r5, [r1, #6]
 8002aba:	7848      	ldrb	r0, [r1, #1]
 8002abc:	086d      	lsrs	r5, r5, #1
 8002abe:	006d      	lsls	r5, r5, #1
 8002ac0:	2800      	cmp	r0, #0
 8002ac2:	d023      	beq.n	8002b0c <USB_ActivateEndpoint+0xa8>
 8002ac4:	2080      	movs	r0, #128	@ 0x80
 8002ac6:	9901      	ldr	r1, [sp, #4]
 8002ac8:	00c0      	lsls	r0, r0, #3
 8002aca:	8809      	ldrh	r1, [r1, #0]
 8002acc:	4461      	add	r1, ip
 8002ace:	1809      	adds	r1, r1, r0
 8002ad0:	800d      	strh	r5, [r1, #0]
 8002ad2:	8819      	ldrh	r1, [r3, #0]
 8002ad4:	0649      	lsls	r1, r1, #25
 8002ad6:	d504      	bpl.n	8002ae2 <USB_ActivateEndpoint+0x7e>
 8002ad8:	8819      	ldrh	r1, [r3, #0]
 8002ada:	4021      	ands	r1, r4
 8002adc:	4c60      	ldr	r4, [pc, #384]	@ (8002c60 <USB_ActivateEndpoint+0x1fc>)
 8002ade:	4321      	orrs	r1, r4
 8002ae0:	8019      	strh	r1, [r3, #0]
 8002ae2:	4d60      	ldr	r5, [pc, #384]	@ (8002c64 <USB_ActivateEndpoint+0x200>)
 8002ae4:	2f01      	cmp	r7, #1
 8002ae6:	d100      	bne.n	8002aea <USB_ActivateEndpoint+0x86>
 8002ae8:	e0ae      	b.n	8002c48 <USB_ActivateEndpoint+0x1e4>
 8002aea:	2120      	movs	r1, #32
 8002aec:	881c      	ldrh	r4, [r3, #0]
 8002aee:	402c      	ands	r4, r5
 8002af0:	4061      	eors	r1, r4
 8002af2:	430a      	orrs	r2, r1
 8002af4:	b292      	uxth	r2, r2
 8002af6:	9800      	ldr	r0, [sp, #0]
 8002af8:	801a      	strh	r2, [r3, #0]
 8002afa:	bdfe      	pop	{r1, r2, r3, r4, r5, r6, r7, pc}
 8002afc:	22c0      	movs	r2, #192	@ 0xc0
 8002afe:	00d2      	lsls	r2, r2, #3
 8002b00:	4314      	orrs	r4, r2
 8002b02:	2200      	movs	r2, #0
 8002b04:	9200      	str	r2, [sp, #0]
 8002b06:	e7c3      	b.n	8002a90 <USB_ActivateEndpoint+0x2c>
 8002b08:	2280      	movs	r2, #128	@ 0x80
 8002b0a:	e7f8      	b.n	8002afe <USB_ActivateEndpoint+0x9a>
 8002b0c:	9801      	ldr	r0, [sp, #4]
 8002b0e:	6909      	ldr	r1, [r1, #16]
 8002b10:	8807      	ldrh	r7, [r0, #0]
 8002b12:	4855      	ldr	r0, [pc, #340]	@ (8002c68 <USB_ActivateEndpoint+0x204>)
 8002b14:	4467      	add	r7, ip
 8002b16:	183f      	adds	r7, r7, r0
 8002b18:	9801      	ldr	r0, [sp, #4]
 8002b1a:	803d      	strh	r5, [r7, #0]
 8002b1c:	8805      	ldrh	r5, [r0, #0]
 8002b1e:	4853      	ldr	r0, [pc, #332]	@ (8002c6c <USB_ActivateEndpoint+0x208>)
 8002b20:	4465      	add	r5, ip
 8002b22:	182d      	adds	r5, r5, r0
 8002b24:	882f      	ldrh	r7, [r5, #0]
 8002b26:	05bf      	lsls	r7, r7, #22
 8002b28:	0dbf      	lsrs	r7, r7, #22
 8002b2a:	802f      	strh	r7, [r5, #0]
 8002b2c:	2900      	cmp	r1, #0
 8002b2e:	d115      	bne.n	8002b5c <USB_ActivateEndpoint+0xf8>
 8002b30:	2780      	movs	r7, #128	@ 0x80
 8002b32:	8829      	ldrh	r1, [r5, #0]
 8002b34:	023f      	lsls	r7, r7, #8
 8002b36:	4339      	orrs	r1, r7
 8002b38:	8029      	strh	r1, [r5, #0]
 8002b3a:	8819      	ldrh	r1, [r3, #0]
 8002b3c:	0449      	lsls	r1, r1, #17
 8002b3e:	d504      	bpl.n	8002b4a <USB_ActivateEndpoint+0xe6>
 8002b40:	8819      	ldrh	r1, [r3, #0]
 8002b42:	4021      	ands	r1, r4
 8002b44:	4c4a      	ldr	r4, [pc, #296]	@ (8002c70 <USB_ActivateEndpoint+0x20c>)
 8002b46:	4321      	orrs	r1, r4
 8002b48:	8019      	strh	r1, [r3, #0]
 8002b4a:	494a      	ldr	r1, [pc, #296]	@ (8002c74 <USB_ActivateEndpoint+0x210>)
 8002b4c:	881c      	ldrh	r4, [r3, #0]
 8002b4e:	400c      	ands	r4, r1
 8002b50:	21c0      	movs	r1, #192	@ 0xc0
 8002b52:	2e00      	cmp	r6, #0
 8002b54:	d000      	beq.n	8002b58 <USB_ActivateEndpoint+0xf4>
 8002b56:	2180      	movs	r1, #128	@ 0x80
 8002b58:	0189      	lsls	r1, r1, #6
 8002b5a:	e7c9      	b.n	8002af0 <USB_ActivateEndpoint+0x8c>
 8002b5c:	293e      	cmp	r1, #62	@ 0x3e
 8002b5e:	d808      	bhi.n	8002b72 <USB_ActivateEndpoint+0x10e>
 8002b60:	2001      	movs	r0, #1
 8002b62:	084f      	lsrs	r7, r1, #1
 8002b64:	4001      	ands	r1, r0
 8002b66:	187f      	adds	r7, r7, r1
 8002b68:	8829      	ldrh	r1, [r5, #0]
 8002b6a:	02bf      	lsls	r7, r7, #10
 8002b6c:	4339      	orrs	r1, r7
 8002b6e:	b289      	uxth	r1, r1
 8002b70:	e7e2      	b.n	8002b38 <USB_ActivateEndpoint+0xd4>
 8002b72:	201f      	movs	r0, #31
 8002b74:	094f      	lsrs	r7, r1, #5
 8002b76:	4001      	ands	r1, r0
 8002b78:	0008      	movs	r0, r1
 8002b7a:	4241      	negs	r1, r0
 8002b7c:	4141      	adcs	r1, r0
 8002b7e:	1a7f      	subs	r7, r7, r1
 8002b80:	8829      	ldrh	r1, [r5, #0]
 8002b82:	02bf      	lsls	r7, r7, #10
 8002b84:	4339      	orrs	r1, r7
 8002b86:	4f3c      	ldr	r7, [pc, #240]	@ (8002c78 <USB_ActivateEndpoint+0x214>)
 8002b88:	430f      	orrs	r7, r1
 8002b8a:	b2bf      	uxth	r7, r7
 8002b8c:	802f      	strh	r7, [r5, #0]
 8002b8e:	e7d4      	b.n	8002b3a <USB_ActivateEndpoint+0xd6>
 8002b90:	881d      	ldrh	r5, [r3, #0]
 8002b92:	2f02      	cmp	r7, #2
 8002b94:	d13a      	bne.n	8002c0c <USB_ActivateEndpoint+0x1a8>
 8002b96:	4e39      	ldr	r6, [pc, #228]	@ (8002c7c <USB_ActivateEndpoint+0x218>)
 8002b98:	4025      	ands	r5, r4
 8002b9a:	4335      	orrs	r5, r6
 8002b9c:	9801      	ldr	r0, [sp, #4]
 8002b9e:	801d      	strh	r5, [r3, #0]
 8002ba0:	8805      	ldrh	r5, [r0, #0]
 8002ba2:	2080      	movs	r0, #128	@ 0x80
 8002ba4:	890e      	ldrh	r6, [r1, #8]
 8002ba6:	4465      	add	r5, ip
 8002ba8:	00c0      	lsls	r0, r0, #3
 8002baa:	0876      	lsrs	r6, r6, #1
 8002bac:	182d      	adds	r5, r5, r0
 8002bae:	0076      	lsls	r6, r6, #1
 8002bb0:	9801      	ldr	r0, [sp, #4]
 8002bb2:	802e      	strh	r6, [r5, #0]
 8002bb4:	8805      	ldrh	r5, [r0, #0]
 8002bb6:	894e      	ldrh	r6, [r1, #10]
 8002bb8:	482b      	ldr	r0, [pc, #172]	@ (8002c68 <USB_ActivateEndpoint+0x204>)
 8002bba:	4465      	add	r5, ip
 8002bbc:	0876      	lsrs	r6, r6, #1
 8002bbe:	182d      	adds	r5, r5, r0
 8002bc0:	0076      	lsls	r6, r6, #1
 8002bc2:	802e      	strh	r6, [r5, #0]
 8002bc4:	7849      	ldrb	r1, [r1, #1]
 8002bc6:	4e27      	ldr	r6, [pc, #156]	@ (8002c64 <USB_ActivateEndpoint+0x200>)
 8002bc8:	468c      	mov	ip, r1
 8002bca:	2180      	movs	r1, #128	@ 0x80
 8002bcc:	4660      	mov	r0, ip
 8002bce:	4d29      	ldr	r5, [pc, #164]	@ (8002c74 <USB_ActivateEndpoint+0x210>)
 8002bd0:	01c9      	lsls	r1, r1, #7
 8002bd2:	2800      	cmp	r0, #0
 8002bd4:	d11f      	bne.n	8002c16 <USB_ActivateEndpoint+0x1b2>
 8002bd6:	881f      	ldrh	r7, [r3, #0]
 8002bd8:	420f      	tst	r7, r1
 8002bda:	d004      	beq.n	8002be6 <USB_ActivateEndpoint+0x182>
 8002bdc:	8819      	ldrh	r1, [r3, #0]
 8002bde:	4f24      	ldr	r7, [pc, #144]	@ (8002c70 <USB_ActivateEndpoint+0x20c>)
 8002be0:	4021      	ands	r1, r4
 8002be2:	4339      	orrs	r1, r7
 8002be4:	8019      	strh	r1, [r3, #0]
 8002be6:	8819      	ldrh	r1, [r3, #0]
 8002be8:	0649      	lsls	r1, r1, #25
 8002bea:	d504      	bpl.n	8002bf6 <USB_ActivateEndpoint+0x192>
 8002bec:	8819      	ldrh	r1, [r3, #0]
 8002bee:	4021      	ands	r1, r4
 8002bf0:	4c1b      	ldr	r4, [pc, #108]	@ (8002c60 <USB_ActivateEndpoint+0x1fc>)
 8002bf2:	4321      	orrs	r1, r4
 8002bf4:	8019      	strh	r1, [r3, #0]
 8002bf6:	21c0      	movs	r1, #192	@ 0xc0
 8002bf8:	881c      	ldrh	r4, [r3, #0]
 8002bfa:	0189      	lsls	r1, r1, #6
 8002bfc:	402c      	ands	r4, r5
 8002bfe:	4061      	eors	r1, r4
 8002c00:	4311      	orrs	r1, r2
 8002c02:	b289      	uxth	r1, r1
 8002c04:	8019      	strh	r1, [r3, #0]
 8002c06:	8819      	ldrh	r1, [r3, #0]
 8002c08:	4031      	ands	r1, r6
 8002c0a:	e772      	b.n	8002af2 <USB_ActivateEndpoint+0x8e>
 8002c0c:	4e1c      	ldr	r6, [pc, #112]	@ (8002c80 <USB_ActivateEndpoint+0x21c>)
 8002c0e:	4035      	ands	r5, r6
 8002c10:	4315      	orrs	r5, r2
 8002c12:	b2ad      	uxth	r5, r5
 8002c14:	e7c2      	b.n	8002b9c <USB_ActivateEndpoint+0x138>
 8002c16:	8818      	ldrh	r0, [r3, #0]
 8002c18:	4208      	tst	r0, r1
 8002c1a:	d004      	beq.n	8002c26 <USB_ActivateEndpoint+0x1c2>
 8002c1c:	8819      	ldrh	r1, [r3, #0]
 8002c1e:	4814      	ldr	r0, [pc, #80]	@ (8002c70 <USB_ActivateEndpoint+0x20c>)
 8002c20:	4021      	ands	r1, r4
 8002c22:	4301      	orrs	r1, r0
 8002c24:	8019      	strh	r1, [r3, #0]
 8002c26:	8819      	ldrh	r1, [r3, #0]
 8002c28:	0649      	lsls	r1, r1, #25
 8002c2a:	d504      	bpl.n	8002c36 <USB_ActivateEndpoint+0x1d2>
 8002c2c:	8819      	ldrh	r1, [r3, #0]
 8002c2e:	4021      	ands	r1, r4
 8002c30:	4c0b      	ldr	r4, [pc, #44]	@ (8002c60 <USB_ActivateEndpoint+0x1fc>)
 8002c32:	4321      	orrs	r1, r4
 8002c34:	8019      	strh	r1, [r3, #0]
 8002c36:	2f01      	cmp	r7, #1
 8002c38:	d009      	beq.n	8002c4e <USB_ActivateEndpoint+0x1ea>
 8002c3a:	2120      	movs	r1, #32
 8002c3c:	881c      	ldrh	r4, [r3, #0]
 8002c3e:	4034      	ands	r4, r6
 8002c40:	4061      	eors	r1, r4
 8002c42:	4311      	orrs	r1, r2
 8002c44:	b289      	uxth	r1, r1
 8002c46:	8019      	strh	r1, [r3, #0]
 8002c48:	8819      	ldrh	r1, [r3, #0]
 8002c4a:	4029      	ands	r1, r5
 8002c4c:	e751      	b.n	8002af2 <USB_ActivateEndpoint+0x8e>
 8002c4e:	8819      	ldrh	r1, [r3, #0]
 8002c50:	4031      	ands	r1, r6
 8002c52:	e7f6      	b.n	8002c42 <USB_ActivateEndpoint+0x1de>
 8002c54:	ffff898f 	.word	0xffff898f
 8002c58:	ffff8080 	.word	0xffff8080
 8002c5c:	ffff8f8f 	.word	0xffff8f8f
 8002c60:	000080c0 	.word	0x000080c0
 8002c64:	ffff8fbf 	.word	0xffff8fbf
 8002c68:	00000404 	.word	0x00000404
 8002c6c:	00000406 	.word	0x00000406
 8002c70:	0000c080 	.word	0x0000c080
 8002c74:	ffffbf8f 	.word	0xffffbf8f
 8002c78:	ffff8000 	.word	0xffff8000
 8002c7c:	00008180 	.word	0x00008180
 8002c80:	ffff8e8f 	.word	0xffff8e8f

08002c84 <USB_DeactivateEndpoint>:
 8002c84:	b5f0      	push	{r4, r5, r6, r7, lr}
 8002c86:	780b      	ldrb	r3, [r1, #0]
 8002c88:	784a      	ldrb	r2, [r1, #1]
 8002c8a:	7b09      	ldrb	r1, [r1, #12]
 8002c8c:	009b      	lsls	r3, r3, #2
 8002c8e:	18c0      	adds	r0, r0, r3
 8002c90:	4b31      	ldr	r3, [pc, #196]	@ (8002d58 <USB_DeactivateEndpoint+0xd4>)
 8002c92:	2900      	cmp	r1, #0
 8002c94:	d11a      	bne.n	8002ccc <USB_DeactivateEndpoint+0x48>
 8002c96:	2a00      	cmp	r2, #0
 8002c98:	d00c      	beq.n	8002cb4 <USB_DeactivateEndpoint+0x30>
 8002c9a:	8802      	ldrh	r2, [r0, #0]
 8002c9c:	0652      	lsls	r2, r2, #25
 8002c9e:	d505      	bpl.n	8002cac <USB_DeactivateEndpoint+0x28>
 8002ca0:	8802      	ldrh	r2, [r0, #0]
 8002ca2:	492e      	ldr	r1, [pc, #184]	@ (8002d5c <USB_DeactivateEndpoint+0xd8>)
 8002ca4:	400a      	ands	r2, r1
 8002ca6:	492e      	ldr	r1, [pc, #184]	@ (8002d60 <USB_DeactivateEndpoint+0xdc>)
 8002ca8:	430a      	orrs	r2, r1
 8002caa:	8002      	strh	r2, [r0, #0]
 8002cac:	8802      	ldrh	r2, [r0, #0]
 8002cae:	492d      	ldr	r1, [pc, #180]	@ (8002d64 <USB_DeactivateEndpoint+0xe0>)
 8002cb0:	400a      	ands	r2, r1
 8002cb2:	e02f      	b.n	8002d14 <USB_DeactivateEndpoint+0x90>
 8002cb4:	8802      	ldrh	r2, [r0, #0]
 8002cb6:	0452      	lsls	r2, r2, #17
 8002cb8:	d505      	bpl.n	8002cc6 <USB_DeactivateEndpoint+0x42>
 8002cba:	8802      	ldrh	r2, [r0, #0]
 8002cbc:	4927      	ldr	r1, [pc, #156]	@ (8002d5c <USB_DeactivateEndpoint+0xd8>)
 8002cbe:	400a      	ands	r2, r1
 8002cc0:	4929      	ldr	r1, [pc, #164]	@ (8002d68 <USB_DeactivateEndpoint+0xe4>)
 8002cc2:	430a      	orrs	r2, r1
 8002cc4:	8002      	strh	r2, [r0, #0]
 8002cc6:	8802      	ldrh	r2, [r0, #0]
 8002cc8:	4928      	ldr	r1, [pc, #160]	@ (8002d6c <USB_DeactivateEndpoint+0xe8>)
 8002cca:	e7f1      	b.n	8002cb0 <USB_DeactivateEndpoint+0x2c>
 8002ccc:	2780      	movs	r7, #128	@ 0x80
 8002cce:	4e23      	ldr	r6, [pc, #140]	@ (8002d5c <USB_DeactivateEndpoint+0xd8>)
 8002cd0:	4d24      	ldr	r5, [pc, #144]	@ (8002d64 <USB_DeactivateEndpoint+0xe0>)
 8002cd2:	4926      	ldr	r1, [pc, #152]	@ (8002d6c <USB_DeactivateEndpoint+0xe8>)
 8002cd4:	01ff      	lsls	r7, r7, #7
 8002cd6:	2a00      	cmp	r2, #0
 8002cd8:	d121      	bne.n	8002d1e <USB_DeactivateEndpoint+0x9a>
 8002cda:	8802      	ldrh	r2, [r0, #0]
 8002cdc:	423a      	tst	r2, r7
 8002cde:	d004      	beq.n	8002cea <USB_DeactivateEndpoint+0x66>
 8002ce0:	8802      	ldrh	r2, [r0, #0]
 8002ce2:	4c21      	ldr	r4, [pc, #132]	@ (8002d68 <USB_DeactivateEndpoint+0xe4>)
 8002ce4:	4032      	ands	r2, r6
 8002ce6:	4322      	orrs	r2, r4
 8002ce8:	8002      	strh	r2, [r0, #0]
 8002cea:	8802      	ldrh	r2, [r0, #0]
 8002cec:	4c20      	ldr	r4, [pc, #128]	@ (8002d70 <USB_DeactivateEndpoint+0xec>)
 8002cee:	0652      	lsls	r2, r2, #25
 8002cf0:	d504      	bpl.n	8002cfc <USB_DeactivateEndpoint+0x78>
 8002cf2:	8802      	ldrh	r2, [r0, #0]
 8002cf4:	4032      	ands	r2, r6
 8002cf6:	4322      	orrs	r2, r4
 8002cf8:	b292      	uxth	r2, r2
 8002cfa:	8002      	strh	r2, [r0, #0]
 8002cfc:	8802      	ldrh	r2, [r0, #0]
 8002cfe:	4032      	ands	r2, r6
 8002d00:	4314      	orrs	r4, r2
 8002d02:	b2a4      	uxth	r4, r4
 8002d04:	8004      	strh	r4, [r0, #0]
 8002d06:	8802      	ldrh	r2, [r0, #0]
 8002d08:	400a      	ands	r2, r1
 8002d0a:	431a      	orrs	r2, r3
 8002d0c:	b292      	uxth	r2, r2
 8002d0e:	8002      	strh	r2, [r0, #0]
 8002d10:	8802      	ldrh	r2, [r0, #0]
 8002d12:	402a      	ands	r2, r5
 8002d14:	4313      	orrs	r3, r2
 8002d16:	b29b      	uxth	r3, r3
 8002d18:	8003      	strh	r3, [r0, #0]
 8002d1a:	2000      	movs	r0, #0
 8002d1c:	bdf0      	pop	{r4, r5, r6, r7, pc}
 8002d1e:	8802      	ldrh	r2, [r0, #0]
 8002d20:	4c14      	ldr	r4, [pc, #80]	@ (8002d74 <USB_DeactivateEndpoint+0xf0>)
 8002d22:	423a      	tst	r2, r7
 8002d24:	d004      	beq.n	8002d30 <USB_DeactivateEndpoint+0xac>
 8002d26:	8802      	ldrh	r2, [r0, #0]
 8002d28:	4032      	ands	r2, r6
 8002d2a:	4322      	orrs	r2, r4
 8002d2c:	b292      	uxth	r2, r2
 8002d2e:	8002      	strh	r2, [r0, #0]
 8002d30:	8802      	ldrh	r2, [r0, #0]
 8002d32:	0652      	lsls	r2, r2, #25
 8002d34:	d504      	bpl.n	8002d40 <USB_DeactivateEndpoint+0xbc>
 8002d36:	8802      	ldrh	r2, [r0, #0]
 8002d38:	4f09      	ldr	r7, [pc, #36]	@ (8002d60 <USB_DeactivateEndpoint+0xdc>)
 8002d3a:	4032      	ands	r2, r6
 8002d3c:	433a      	orrs	r2, r7
 8002d3e:	8002      	strh	r2, [r0, #0]
 8002d40:	8802      	ldrh	r2, [r0, #0]
 8002d42:	4032      	ands	r2, r6
 8002d44:	4314      	orrs	r4, r2
 8002d46:	b2a4      	uxth	r4, r4
 8002d48:	8004      	strh	r4, [r0, #0]
 8002d4a:	8802      	ldrh	r2, [r0, #0]
 8002d4c:	402a      	ands	r2, r5
 8002d4e:	431a      	orrs	r2, r3
 8002d50:	b292      	uxth	r2, r2
 8002d52:	8002      	strh	r2, [r0, #0]
 8002d54:	8802      	ldrh	r2, [r0, #0]
 8002d56:	e7ab      	b.n	8002cb0 <USB_DeactivateEndpoint+0x2c>
 8002d58:	ffff8080 	.word	0xffff8080
 8002d5c:	ffff8f8f 	.word	0xffff8f8f
 8002d60:	000080c0 	.word	0x000080c0
 8002d64:	ffff8fbf 	.word	0xffff8fbf
 8002d68:	0000c080 	.word	0x0000c080
 8002d6c:	ffffbf8f 	.word	0xffffbf8f
 8002d70:	ffff80c0 	.word	0xffff80c0
 8002d74:	ffffc080 	.word	0xffffc080

08002d78 <USB_EPSetStall>:
 8002d78:	780b      	ldrb	r3, [r1, #0]
 8002d7a:	4a0c      	ldr	r2, [pc, #48]	@ (8002dac <USB_EPSetStall+0x34>)
 8002d7c:	009b      	lsls	r3, r3, #2
 8002d7e:	18c0      	adds	r0, r0, r3
 8002d80:	784b      	ldrb	r3, [r1, #1]
 8002d82:	8801      	ldrh	r1, [r0, #0]
 8002d84:	2b00      	cmp	r3, #0
 8002d86:	d008      	beq.n	8002d9a <USB_EPSetStall+0x22>
 8002d88:	4b09      	ldr	r3, [pc, #36]	@ (8002db0 <USB_EPSetStall+0x38>)
 8002d8a:	4019      	ands	r1, r3
 8002d8c:	2310      	movs	r3, #16
 8002d8e:	404b      	eors	r3, r1
 8002d90:	4313      	orrs	r3, r2
 8002d92:	b29b      	uxth	r3, r3
 8002d94:	8003      	strh	r3, [r0, #0]
 8002d96:	2000      	movs	r0, #0
 8002d98:	4770      	bx	lr
 8002d9a:	4b06      	ldr	r3, [pc, #24]	@ (8002db4 <USB_EPSetStall+0x3c>)
 8002d9c:	4019      	ands	r1, r3
 8002d9e:	2380      	movs	r3, #128	@ 0x80
 8002da0:	015b      	lsls	r3, r3, #5
 8002da2:	404b      	eors	r3, r1
 8002da4:	431a      	orrs	r2, r3
 8002da6:	b292      	uxth	r2, r2
 8002da8:	8002      	strh	r2, [r0, #0]
 8002daa:	e7f4      	b.n	8002d96 <USB_EPSetStall+0x1e>
 8002dac:	ffff8080 	.word	0xffff8080
 8002db0:	ffff8fbf 	.word	0xffff8fbf
 8002db4:	ffffbf8f 	.word	0xffffbf8f

08002db8 <USB_EPClearStall>:
 8002db8:	7b0b      	ldrb	r3, [r1, #12]
 8002dba:	2b00      	cmp	r3, #0
 8002dbc:	d119      	bne.n	8002df2 <USB_EPClearStall+0x3a>
 8002dbe:	780b      	ldrb	r3, [r1, #0]
 8002dc0:	009b      	lsls	r3, r3, #2
 8002dc2:	18c0      	adds	r0, r0, r3
 8002dc4:	784b      	ldrb	r3, [r1, #1]
 8002dc6:	2b00      	cmp	r3, #0
 8002dc8:	d015      	beq.n	8002df6 <USB_EPClearStall+0x3e>
 8002dca:	8803      	ldrh	r3, [r0, #0]
 8002dcc:	065b      	lsls	r3, r3, #25
 8002dce:	d505      	bpl.n	8002ddc <USB_EPClearStall+0x24>
 8002dd0:	8803      	ldrh	r3, [r0, #0]
 8002dd2:	4a10      	ldr	r2, [pc, #64]	@ (8002e14 <USB_EPClearStall+0x5c>)
 8002dd4:	4013      	ands	r3, r2
 8002dd6:	4a10      	ldr	r2, [pc, #64]	@ (8002e18 <USB_EPClearStall+0x60>)
 8002dd8:	4313      	orrs	r3, r2
 8002dda:	8003      	strh	r3, [r0, #0]
 8002ddc:	78cb      	ldrb	r3, [r1, #3]
 8002dde:	2b01      	cmp	r3, #1
 8002de0:	d007      	beq.n	8002df2 <USB_EPClearStall+0x3a>
 8002de2:	4b0e      	ldr	r3, [pc, #56]	@ (8002e1c <USB_EPClearStall+0x64>)
 8002de4:	8802      	ldrh	r2, [r0, #0]
 8002de6:	401a      	ands	r2, r3
 8002de8:	2320      	movs	r3, #32
 8002dea:	4053      	eors	r3, r2
 8002dec:	4a0c      	ldr	r2, [pc, #48]	@ (8002e20 <USB_EPClearStall+0x68>)
 8002dee:	4313      	orrs	r3, r2
 8002df0:	8003      	strh	r3, [r0, #0]
 8002df2:	2000      	movs	r0, #0
 8002df4:	4770      	bx	lr
 8002df6:	8803      	ldrh	r3, [r0, #0]
 8002df8:	045b      	lsls	r3, r3, #17
 8002dfa:	d505      	bpl.n	8002e08 <USB_EPClearStall+0x50>
 8002dfc:	8803      	ldrh	r3, [r0, #0]
 8002dfe:	4a05      	ldr	r2, [pc, #20]	@ (8002e14 <USB_EPClearStall+0x5c>)
 8002e00:	4013      	ands	r3, r2
 8002e02:	4a08      	ldr	r2, [pc, #32]	@ (8002e24 <USB_EPClearStall+0x6c>)
 8002e04:	4313      	orrs	r3, r2
 8002e06:	8003      	strh	r3, [r0, #0]
 8002e08:	4b07      	ldr	r3, [pc, #28]	@ (8002e28 <USB_EPClearStall+0x70>)
 8002e0a:	8802      	ldrh	r2, [r0, #0]
 8002e0c:	401a      	ands	r2, r3
 8002e0e:	23c0      	movs	r3, #192	@ 0xc0
 8002e10:	019b      	lsls	r3, r3, #6
 8002e12:	e7ea      	b.n	8002dea <USB_EPClearStall+0x32>
 8002e14:	ffff8f8f 	.word	0xffff8f8f
 8002e18:	000080c0 	.word	0x000080c0
 8002e1c:	ffff8fbf 	.word	0xffff8fbf
 8002e20:	00008080 	.word	0x00008080
 8002e24:	0000c080 	.word	0x0000c080
 8002e28:	ffffbf8f 	.word	0xffffbf8f

08002e2c <USB_SetDevAddress>:
 8002e2c:	2900      	cmp	r1, #0
 8002e2e:	d102      	bne.n	8002e36 <USB_SetDevAddress+0xa>
 8002e30:	2380      	movs	r3, #128	@ 0x80
 8002e32:	304c      	adds	r0, #76	@ 0x4c
 8002e34:	8003      	strh	r3, [r0, #0]
 8002e36:	2000      	movs	r0, #0
 8002e38:	4770      	bx	lr

08002e3a <USB_DevConnect>:
 8002e3a:	2280      	movs	r2, #128	@ 0x80
 8002e3c:	3058      	adds	r0, #88	@ 0x58
 8002e3e:	8803      	ldrh	r3, [r0, #0]
 8002e40:	0212      	lsls	r2, r2, #8
 8002e42:	4313      	orrs	r3, r2
 8002e44:	8003      	strh	r3, [r0, #0]
 8002e46:	2000      	movs	r0, #0
 8002e48:	4770      	bx	lr

08002e4a <USB_ReadInterrupts>:
 8002e4a:	3006      	adds	r0, #6
 8002e4c:	8fc0      	ldrh	r0, [r0, #62]	@ 0x3e
 8002e4e:	b280      	uxth	r0, r0
 8002e50:	4770      	bx	lr

08002e52 <USB_WritePMA>:
 8002e52:	b530      	push	{r4, r5, lr}
 8002e54:	2480      	movs	r4, #128	@ 0x80
 8002e56:	3301      	adds	r3, #1
 8002e58:	00e4      	lsls	r4, r4, #3
 8002e5a:	1912      	adds	r2, r2, r4
 8002e5c:	085b      	lsrs	r3, r3, #1
 8002e5e:	1880      	adds	r0, r0, r2
 8002e60:	005b      	lsls	r3, r3, #1
 8002e62:	18cb      	adds	r3, r1, r3
 8002e64:	1a40      	subs	r0, r0, r1
 8002e66:	180c      	adds	r4, r1, r0
 8002e68:	428b      	cmp	r3, r1
 8002e6a:	d100      	bne.n	8002e6e <USB_WritePMA+0x1c>
 8002e6c:	bd30      	pop	{r4, r5, pc}
 8002e6e:	784a      	ldrb	r2, [r1, #1]
 8002e70:	780d      	ldrb	r5, [r1, #0]
 8002e72:	0212      	lsls	r2, r2, #8
 8002e74:	432a      	orrs	r2, r5
 8002e76:	8022      	strh	r2, [r4, #0]
 8002e78:	3102      	adds	r1, #2
 8002e7a:	e7f4      	b.n	8002e66 <USB_WritePMA+0x14>

08002e7c <USB_EPStartXfer>:
 8002e7c:	b5f0      	push	{r4, r5, r6, r7, lr}
 8002e7e:	000c      	movs	r4, r1
 8002e80:	7849      	ldrb	r1, [r1, #1]
 8002e82:	0005      	movs	r5, r0
 8002e84:	7b22      	ldrb	r2, [r4, #12]
 8002e86:	b087      	sub	sp, #28
 8002e88:	2901      	cmp	r1, #1
 8002e8a:	d000      	beq.n	8002e8e <USB_EPStartXfer+0x12>
 8002e8c:	e11b      	b.n	80030c6 <USB_EPStartXfer+0x24a>
 8002e8e:	6923      	ldr	r3, [r4, #16]
 8002e90:	69a7      	ldr	r7, [r4, #24]
 8002e92:	9302      	str	r3, [sp, #8]
 8002e94:	429f      	cmp	r7, r3
 8002e96:	d900      	bls.n	8002e9a <USB_EPStartXfer+0x1e>
 8002e98:	001f      	movs	r7, r3
 8002e9a:	002b      	movs	r3, r5
 8002e9c:	3350      	adds	r3, #80	@ 0x50
 8002e9e:	6961      	ldr	r1, [r4, #20]
 8002ea0:	9301      	str	r3, [sp, #4]
 8002ea2:	2a00      	cmp	r2, #0
 8002ea4:	d11d      	bne.n	8002ee2 <USB_EPStartXfer+0x66>
 8002ea6:	b2bf      	uxth	r7, r7
 8002ea8:	003b      	movs	r3, r7
 8002eaa:	88e2      	ldrh	r2, [r4, #6]
 8002eac:	0028      	movs	r0, r5
 8002eae:	f7ff ffd0 	bl	8002e52 <USB_WritePMA>
 8002eb2:	9b01      	ldr	r3, [sp, #4]
 8002eb4:	4abe      	ldr	r2, [pc, #760]	@ (80031b0 <USB_EPStartXfer+0x334>)
 8002eb6:	8819      	ldrh	r1, [r3, #0]
 8002eb8:	7823      	ldrb	r3, [r4, #0]
 8002eba:	18aa      	adds	r2, r5, r2
 8002ebc:	00db      	lsls	r3, r3, #3
 8002ebe:	1852      	adds	r2, r2, r1
 8002ec0:	189b      	adds	r3, r3, r2
 8002ec2:	801f      	strh	r7, [r3, #0]
 8002ec4:	7823      	ldrb	r3, [r4, #0]
 8002ec6:	4abb      	ldr	r2, [pc, #748]	@ (80031b4 <USB_EPStartXfer+0x338>)
 8002ec8:	009b      	lsls	r3, r3, #2
 8002eca:	18eb      	adds	r3, r5, r3
 8002ecc:	8819      	ldrh	r1, [r3, #0]
 8002ece:	4011      	ands	r1, r2
 8002ed0:	2230      	movs	r2, #48	@ 0x30
 8002ed2:	404a      	eors	r2, r1
 8002ed4:	49b8      	ldr	r1, [pc, #736]	@ (80031b8 <USB_EPStartXfer+0x33c>)
 8002ed6:	430a      	orrs	r2, r1
 8002ed8:	b292      	uxth	r2, r2
 8002eda:	801a      	strh	r2, [r3, #0]
 8002edc:	2000      	movs	r0, #0
 8002ede:	b007      	add	sp, #28
 8002ee0:	bdf0      	pop	{r4, r5, r6, r7, pc}
 8002ee2:	7822      	ldrb	r2, [r4, #0]
 8002ee4:	6a26      	ldr	r6, [r4, #32]
 8002ee6:	0093      	lsls	r3, r2, #2
 8002ee8:	00d2      	lsls	r2, r2, #3
 8002eea:	9203      	str	r2, [sp, #12]
 8002eec:	78e0      	ldrb	r0, [r4, #3]
 8002eee:	18eb      	adds	r3, r5, r3
 8002ef0:	2802      	cmp	r0, #2
 8002ef2:	d000      	beq.n	8002ef6 <USB_EPStartXfer+0x7a>
 8002ef4:	e0d1      	b.n	800309a <USB_EPStartXfer+0x21e>
 8002ef6:	9a02      	ldr	r2, [sp, #8]
 8002ef8:	42b2      	cmp	r2, r6
 8002efa:	d300      	bcc.n	8002efe <USB_EPStartXfer+0x82>
 8002efc:	e0bb      	b.n	8003076 <USB_EPStartXfer+0x1fa>
 8002efe:	881a      	ldrh	r2, [r3, #0]
 8002f00:	48ae      	ldr	r0, [pc, #696]	@ (80031bc <USB_EPStartXfer+0x340>)
 8002f02:	1bf6      	subs	r6, r6, r7
 8002f04:	4010      	ands	r0, r2
 8002f06:	4aae      	ldr	r2, [pc, #696]	@ (80031c0 <USB_EPStartXfer+0x344>)
 8002f08:	4310      	orrs	r0, r2
 8002f0a:	8018      	strh	r0, [r3, #0]
 8002f0c:	881b      	ldrh	r3, [r3, #0]
 8002f0e:	2040      	movs	r0, #64	@ 0x40
 8002f10:	469c      	mov	ip, r3
 8002f12:	4662      	mov	r2, ip
 8002f14:	4002      	ands	r2, r0
 8002f16:	9205      	str	r2, [sp, #20]
 8002f18:	4662      	mov	r2, ip
 8002f1a:	19cb      	adds	r3, r1, r7
 8002f1c:	9304      	str	r3, [sp, #16]
 8002f1e:	6226      	str	r6, [r4, #32]
 8002f20:	b2bb      	uxth	r3, r7
 8002f22:	4202      	tst	r2, r0
 8002f24:	d055      	beq.n	8002fd2 <USB_EPStartXfer+0x156>
 8002f26:	9a01      	ldr	r2, [sp, #4]
 8002f28:	8812      	ldrh	r2, [r2, #0]
 8002f2a:	4694      	mov	ip, r2
 8002f2c:	4aa5      	ldr	r2, [pc, #660]	@ (80031c4 <USB_EPStartXfer+0x348>)
 8002f2e:	18a8      	adds	r0, r5, r2
 8002f30:	9a03      	ldr	r2, [sp, #12]
 8002f32:	4460      	add	r0, ip
 8002f34:	1882      	adds	r2, r0, r2
 8002f36:	8013      	strh	r3, [r2, #0]
 8002f38:	8962      	ldrh	r2, [r4, #10]
 8002f3a:	0028      	movs	r0, r5
 8002f3c:	f7ff ff89 	bl	8002e52 <USB_WritePMA>
 8002f40:	9b04      	ldr	r3, [sp, #16]
 8002f42:	9a02      	ldr	r2, [sp, #8]
 8002f44:	6163      	str	r3, [r4, #20]
 8002f46:	2300      	movs	r3, #0
 8002f48:	42b2      	cmp	r2, r6
 8002f4a:	d201      	bcs.n	8002f50 <USB_EPStartXfer+0xd4>
 8002f4c:	1bf3      	subs	r3, r6, r7
 8002f4e:	003e      	movs	r6, r7
 8002f50:	7862      	ldrb	r2, [r4, #1]
 8002f52:	6223      	str	r3, [r4, #32]
 8002f54:	b2b3      	uxth	r3, r6
 8002f56:	2a00      	cmp	r2, #0
 8002f58:	d12e      	bne.n	8002fb8 <USB_EPStartXfer+0x13c>
 8002f5a:	9a01      	ldr	r2, [sp, #4]
 8002f5c:	4994      	ldr	r1, [pc, #592]	@ (80031b0 <USB_EPStartXfer+0x334>)
 8002f5e:	8810      	ldrh	r0, [r2, #0]
 8002f60:	7822      	ldrb	r2, [r4, #0]
 8002f62:	1869      	adds	r1, r5, r1
 8002f64:	1809      	adds	r1, r1, r0
 8002f66:	00d2      	lsls	r2, r2, #3
 8002f68:	1852      	adds	r2, r2, r1
 8002f6a:	8811      	ldrh	r1, [r2, #0]
 8002f6c:	0589      	lsls	r1, r1, #22
 8002f6e:	0d89      	lsrs	r1, r1, #22
 8002f70:	8011      	strh	r1, [r2, #0]
 8002f72:	2e00      	cmp	r6, #0
 8002f74:	d10a      	bne.n	8002f8c <USB_EPStartXfer+0x110>
 8002f76:	2080      	movs	r0, #128	@ 0x80
 8002f78:	8811      	ldrh	r1, [r2, #0]
 8002f7a:	0200      	lsls	r0, r0, #8
 8002f7c:	4301      	orrs	r1, r0
 8002f7e:	8011      	strh	r1, [r2, #0]
 8002f80:	8922      	ldrh	r2, [r4, #8]
 8002f82:	9904      	ldr	r1, [sp, #16]
 8002f84:	0028      	movs	r0, r5
 8002f86:	f7ff ff64 	bl	8002e52 <USB_WritePMA>
 8002f8a:	e79b      	b.n	8002ec4 <USB_EPStartXfer+0x48>
 8002f8c:	2e3e      	cmp	r6, #62	@ 0x3e
 8002f8e:	d808      	bhi.n	8002fa2 <USB_EPStartXfer+0x126>
 8002f90:	2101      	movs	r1, #1
 8002f92:	0870      	lsrs	r0, r6, #1
 8002f94:	4031      	ands	r1, r6
 8002f96:	1840      	adds	r0, r0, r1
 8002f98:	8811      	ldrh	r1, [r2, #0]
 8002f9a:	0280      	lsls	r0, r0, #10
 8002f9c:	4301      	orrs	r1, r0
 8002f9e:	b289      	uxth	r1, r1
 8002fa0:	e7ed      	b.n	8002f7e <USB_EPStartXfer+0x102>
 8002fa2:	201f      	movs	r0, #31
 8002fa4:	4030      	ands	r0, r6
 8002fa6:	0971      	lsrs	r1, r6, #5
 8002fa8:	4246      	negs	r6, r0
 8002faa:	4170      	adcs	r0, r6
 8002fac:	1a09      	subs	r1, r1, r0
 8002fae:	8810      	ldrh	r0, [r2, #0]
 8002fb0:	0289      	lsls	r1, r1, #10
 8002fb2:	4308      	orrs	r0, r1
 8002fb4:	4984      	ldr	r1, [pc, #528]	@ (80031c8 <USB_EPStartXfer+0x34c>)
 8002fb6:	e7f1      	b.n	8002f9c <USB_EPStartXfer+0x120>
 8002fb8:	2a01      	cmp	r2, #1
 8002fba:	d1e1      	bne.n	8002f80 <USB_EPStartXfer+0x104>
 8002fbc:	002a      	movs	r2, r5
 8002fbe:	497c      	ldr	r1, [pc, #496]	@ (80031b0 <USB_EPStartXfer+0x334>)
 8002fc0:	3250      	adds	r2, #80	@ 0x50
 8002fc2:	8810      	ldrh	r0, [r2, #0]
 8002fc4:	7822      	ldrb	r2, [r4, #0]
 8002fc6:	1869      	adds	r1, r5, r1
 8002fc8:	00d2      	lsls	r2, r2, #3
 8002fca:	1809      	adds	r1, r1, r0
 8002fcc:	1852      	adds	r2, r2, r1
 8002fce:	8013      	strh	r3, [r2, #0]
 8002fd0:	e7d6      	b.n	8002f80 <USB_EPStartXfer+0x104>
 8002fd2:	9a01      	ldr	r2, [sp, #4]
 8002fd4:	8812      	ldrh	r2, [r2, #0]
 8002fd6:	4694      	mov	ip, r2
 8002fd8:	4a75      	ldr	r2, [pc, #468]	@ (80031b0 <USB_EPStartXfer+0x334>)
 8002fda:	18a8      	adds	r0, r5, r2
 8002fdc:	9a03      	ldr	r2, [sp, #12]
 8002fde:	4460      	add	r0, ip
 8002fe0:	1882      	adds	r2, r0, r2
 8002fe2:	8013      	strh	r3, [r2, #0]
 8002fe4:	8922      	ldrh	r2, [r4, #8]
 8002fe6:	0028      	movs	r0, r5
 8002fe8:	f7ff ff33 	bl	8002e52 <USB_WritePMA>
 8002fec:	9b04      	ldr	r3, [sp, #16]
 8002fee:	9a02      	ldr	r2, [sp, #8]
 8002ff0:	6163      	str	r3, [r4, #20]
 8002ff2:	9b05      	ldr	r3, [sp, #20]
 8002ff4:	42b2      	cmp	r2, r6
 8002ff6:	d201      	bcs.n	8002ffc <USB_EPStartXfer+0x180>
 8002ff8:	1bf3      	subs	r3, r6, r7
 8002ffa:	003e      	movs	r6, r7
 8002ffc:	7862      	ldrb	r2, [r4, #1]
 8002ffe:	6223      	str	r3, [r4, #32]
 8003000:	b2b3      	uxth	r3, r6
 8003002:	2a00      	cmp	r2, #0
 8003004:	d12a      	bne.n	800305c <USB_EPStartXfer+0x1e0>
 8003006:	9a01      	ldr	r2, [sp, #4]
 8003008:	496e      	ldr	r1, [pc, #440]	@ (80031c4 <USB_EPStartXfer+0x348>)
 800300a:	8810      	ldrh	r0, [r2, #0]
 800300c:	7822      	ldrb	r2, [r4, #0]
 800300e:	1869      	adds	r1, r5, r1
 8003010:	1809      	adds	r1, r1, r0
 8003012:	00d2      	lsls	r2, r2, #3
 8003014:	1852      	adds	r2, r2, r1
 8003016:	8811      	ldrh	r1, [r2, #0]
 8003018:	0589      	lsls	r1, r1, #22
 800301a:	0d89      	lsrs	r1, r1, #22
 800301c:	8011      	strh	r1, [r2, #0]
 800301e:	2e00      	cmp	r6, #0
 8003020:	d106      	bne.n	8003030 <USB_EPStartXfer+0x1b4>
 8003022:	2080      	movs	r0, #128	@ 0x80
 8003024:	8811      	ldrh	r1, [r2, #0]
 8003026:	0200      	lsls	r0, r0, #8
 8003028:	4301      	orrs	r1, r0
 800302a:	8011      	strh	r1, [r2, #0]
 800302c:	8962      	ldrh	r2, [r4, #10]
 800302e:	e7a8      	b.n	8002f82 <USB_EPStartXfer+0x106>
 8003030:	2e3e      	cmp	r6, #62	@ 0x3e
 8003032:	d808      	bhi.n	8003046 <USB_EPStartXfer+0x1ca>
 8003034:	2101      	movs	r1, #1
 8003036:	0870      	lsrs	r0, r6, #1
 8003038:	4031      	ands	r1, r6
 800303a:	1840      	adds	r0, r0, r1
 800303c:	8811      	ldrh	r1, [r2, #0]
 800303e:	0280      	lsls	r0, r0, #10
 8003040:	4301      	orrs	r1, r0
 8003042:	b289      	uxth	r1, r1
 8003044:	e7f1      	b.n	800302a <USB_EPStartXfer+0x1ae>
 8003046:	201f      	movs	r0, #31
 8003048:	0971      	lsrs	r1, r6, #5
 800304a:	4006      	ands	r6, r0
 800304c:	4270      	negs	r0, r6
 800304e:	4146      	adcs	r6, r0
 8003050:	8810      	ldrh	r0, [r2, #0]
 8003052:	1b89      	subs	r1, r1, r6
 8003054:	0289      	lsls	r1, r1, #10
 8003056:	4308      	orrs	r0, r1
 8003058:	495b      	ldr	r1, [pc, #364]	@ (80031c8 <USB_EPStartXfer+0x34c>)
 800305a:	e7f1      	b.n	8003040 <USB_EPStartXfer+0x1c4>
 800305c:	2a01      	cmp	r2, #1
 800305e:	d1e5      	bne.n	800302c <USB_EPStartXfer+0x1b0>
 8003060:	002a      	movs	r2, r5
 8003062:	4958      	ldr	r1, [pc, #352]	@ (80031c4 <USB_EPStartXfer+0x348>)
 8003064:	3250      	adds	r2, #80	@ 0x50
 8003066:	8810      	ldrh	r0, [r2, #0]
 8003068:	7822      	ldrb	r2, [r4, #0]
 800306a:	1869      	adds	r1, r5, r1
 800306c:	00d2      	lsls	r2, r2, #3
 800306e:	1809      	adds	r1, r1, r0
 8003070:	1852      	adds	r2, r2, r1
 8003072:	8013      	strh	r3, [r2, #0]
 8003074:	e7da      	b.n	800302c <USB_EPStartXfer+0x1b0>
 8003076:	8818      	ldrh	r0, [r3, #0]
 8003078:	4f54      	ldr	r7, [pc, #336]	@ (80031cc <USB_EPStartXfer+0x350>)
 800307a:	4a4f      	ldr	r2, [pc, #316]	@ (80031b8 <USB_EPStartXfer+0x33c>)
 800307c:	4038      	ands	r0, r7
 800307e:	4310      	orrs	r0, r2
 8003080:	b280      	uxth	r0, r0
 8003082:	8018      	strh	r0, [r3, #0]
 8003084:	9b01      	ldr	r3, [sp, #4]
 8003086:	9a03      	ldr	r2, [sp, #12]
 8003088:	8818      	ldrh	r0, [r3, #0]
 800308a:	4b49      	ldr	r3, [pc, #292]	@ (80031b0 <USB_EPStartXfer+0x334>)
 800308c:	18eb      	adds	r3, r5, r3
 800308e:	181b      	adds	r3, r3, r0
 8003090:	189a      	adds	r2, r3, r2
 8003092:	b2b3      	uxth	r3, r6
 8003094:	8013      	strh	r3, [r2, #0]
 8003096:	8922      	ldrh	r2, [r4, #8]
 8003098:	e774      	b.n	8002f84 <USB_EPStartXfer+0x108>
 800309a:	8818      	ldrh	r0, [r3, #0]
 800309c:	1bf6      	subs	r6, r6, r7
 800309e:	9a01      	ldr	r2, [sp, #4]
 80030a0:	6226      	str	r6, [r4, #32]
 80030a2:	8816      	ldrh	r6, [r2, #0]
 80030a4:	b2bb      	uxth	r3, r7
 80030a6:	0640      	lsls	r0, r0, #25
 80030a8:	d507      	bpl.n	80030ba <USB_EPStartXfer+0x23e>
 80030aa:	4a46      	ldr	r2, [pc, #280]	@ (80031c4 <USB_EPStartXfer+0x348>)
 80030ac:	18a8      	adds	r0, r5, r2
 80030ae:	9a03      	ldr	r2, [sp, #12]
 80030b0:	1980      	adds	r0, r0, r6
 80030b2:	1882      	adds	r2, r0, r2
 80030b4:	8013      	strh	r3, [r2, #0]
 80030b6:	8962      	ldrh	r2, [r4, #10]
 80030b8:	e764      	b.n	8002f84 <USB_EPStartXfer+0x108>
 80030ba:	4a3d      	ldr	r2, [pc, #244]	@ (80031b0 <USB_EPStartXfer+0x334>)
 80030bc:	18a8      	adds	r0, r5, r2
 80030be:	9a03      	ldr	r2, [sp, #12]
 80030c0:	1980      	adds	r0, r0, r6
 80030c2:	1882      	adds	r2, r0, r2
 80030c4:	e7e6      	b.n	8003094 <USB_EPStartXfer+0x218>
 80030c6:	2a00      	cmp	r2, #0
 80030c8:	d11c      	bne.n	8003104 <USB_EPStartXfer+0x288>
 80030ca:	69a3      	ldr	r3, [r4, #24]
 80030cc:	6921      	ldr	r1, [r4, #16]
 80030ce:	428b      	cmp	r3, r1
 80030d0:	d901      	bls.n	80030d6 <USB_EPStartXfer+0x25a>
 80030d2:	1a5a      	subs	r2, r3, r1
 80030d4:	000b      	movs	r3, r1
 80030d6:	61a2      	str	r2, [r4, #24]
 80030d8:	002a      	movs	r2, r5
 80030da:	493a      	ldr	r1, [pc, #232]	@ (80031c4 <USB_EPStartXfer+0x348>)
 80030dc:	3250      	adds	r2, #80	@ 0x50
 80030de:	8810      	ldrh	r0, [r2, #0]
 80030e0:	7822      	ldrb	r2, [r4, #0]
 80030e2:	1869      	adds	r1, r5, r1
 80030e4:	00d2      	lsls	r2, r2, #3
 80030e6:	1809      	adds	r1, r1, r0
 80030e8:	1852      	adds	r2, r2, r1
 80030ea:	8811      	ldrh	r1, [r2, #0]
 80030ec:	0589      	lsls	r1, r1, #22
 80030ee:	0d89      	lsrs	r1, r1, #22
 80030f0:	8011      	strh	r1, [r2, #0]
 80030f2:	2b00      	cmp	r3, #0
 80030f4:	d000      	beq.n	80030f8 <USB_EPStartXfer+0x27c>
 80030f6:	e0d6      	b.n	80032a6 <USB_EPStartXfer+0x42a>
 80030f8:	2180      	movs	r1, #128	@ 0x80
 80030fa:	8813      	ldrh	r3, [r2, #0]
 80030fc:	0209      	lsls	r1, r1, #8
 80030fe:	430b      	orrs	r3, r1
 8003100:	8013      	strh	r3, [r2, #0]
 8003102:	e03d      	b.n	8003180 <USB_EPStartXfer+0x304>
 8003104:	78e3      	ldrb	r3, [r4, #3]
 8003106:	2b02      	cmp	r3, #2
 8003108:	d000      	beq.n	800310c <USB_EPStartXfer+0x290>
 800310a:	e08c      	b.n	8003226 <USB_EPStartXfer+0x3aa>
 800310c:	2900      	cmp	r1, #0
 800310e:	d124      	bne.n	800315a <USB_EPStartXfer+0x2de>
 8003110:	0006      	movs	r6, r0
 8003112:	4a27      	ldr	r2, [pc, #156]	@ (80031b0 <USB_EPStartXfer+0x334>)
 8003114:	3650      	adds	r6, #80	@ 0x50
 8003116:	8833      	ldrh	r3, [r6, #0]
 8003118:	7820      	ldrb	r0, [r4, #0]
 800311a:	18aa      	adds	r2, r5, r2
 800311c:	18d2      	adds	r2, r2, r3
 800311e:	00c0      	lsls	r0, r0, #3
 8003120:	1812      	adds	r2, r2, r0
 8003122:	8813      	ldrh	r3, [r2, #0]
 8003124:	059b      	lsls	r3, r3, #22
 8003126:	0d9b      	lsrs	r3, r3, #22
 8003128:	8013      	strh	r3, [r2, #0]
 800312a:	6923      	ldr	r3, [r4, #16]
 800312c:	2b00      	cmp	r3, #0
 800312e:	d134      	bne.n	800319a <USB_EPStartXfer+0x31e>
 8003130:	2780      	movs	r7, #128	@ 0x80
 8003132:	8811      	ldrh	r1, [r2, #0]
 8003134:	023f      	lsls	r7, r7, #8
 8003136:	4339      	orrs	r1, r7
 8003138:	8011      	strh	r1, [r2, #0]
 800313a:	4a22      	ldr	r2, [pc, #136]	@ (80031c4 <USB_EPStartXfer+0x348>)
 800313c:	8831      	ldrh	r1, [r6, #0]
 800313e:	18aa      	adds	r2, r5, r2
 8003140:	1852      	adds	r2, r2, r1
 8003142:	1812      	adds	r2, r2, r0
 8003144:	8811      	ldrh	r1, [r2, #0]
 8003146:	0589      	lsls	r1, r1, #22
 8003148:	0d89      	lsrs	r1, r1, #22
 800314a:	8011      	strh	r1, [r2, #0]
 800314c:	2b00      	cmp	r3, #0
 800314e:	d154      	bne.n	80031fa <USB_EPStartXfer+0x37e>
 8003150:	2180      	movs	r1, #128	@ 0x80
 8003152:	8813      	ldrh	r3, [r2, #0]
 8003154:	0209      	lsls	r1, r1, #8
 8003156:	430b      	orrs	r3, r1
 8003158:	8013      	strh	r3, [r2, #0]
 800315a:	69e3      	ldr	r3, [r4, #28]
 800315c:	2b00      	cmp	r3, #0
 800315e:	d00f      	beq.n	8003180 <USB_EPStartXfer+0x304>
 8003160:	7823      	ldrb	r3, [r4, #0]
 8003162:	491b      	ldr	r1, [pc, #108]	@ (80031d0 <USB_EPStartXfer+0x354>)
 8003164:	009b      	lsls	r3, r3, #2
 8003166:	18eb      	adds	r3, r5, r3
 8003168:	881a      	ldrh	r2, [r3, #0]
 800316a:	400a      	ands	r2, r1
 800316c:	428a      	cmp	r2, r1
 800316e:	d001      	beq.n	8003174 <USB_EPStartXfer+0x2f8>
 8003170:	2a00      	cmp	r2, #0
 8003172:	d105      	bne.n	8003180 <USB_EPStartXfer+0x304>
 8003174:	881a      	ldrh	r2, [r3, #0]
 8003176:	4911      	ldr	r1, [pc, #68]	@ (80031bc <USB_EPStartXfer+0x340>)
 8003178:	400a      	ands	r2, r1
 800317a:	4916      	ldr	r1, [pc, #88]	@ (80031d4 <USB_EPStartXfer+0x358>)
 800317c:	430a      	orrs	r2, r1
 800317e:	801a      	strh	r2, [r3, #0]
 8003180:	7823      	ldrb	r3, [r4, #0]
 8003182:	009b      	lsls	r3, r3, #2
 8003184:	18ed      	adds	r5, r5, r3
 8003186:	882a      	ldrh	r2, [r5, #0]
 8003188:	4b13      	ldr	r3, [pc, #76]	@ (80031d8 <USB_EPStartXfer+0x35c>)
 800318a:	401a      	ands	r2, r3
 800318c:	23c0      	movs	r3, #192	@ 0xc0
 800318e:	019b      	lsls	r3, r3, #6
 8003190:	4053      	eors	r3, r2
 8003192:	4a12      	ldr	r2, [pc, #72]	@ (80031dc <USB_EPStartXfer+0x360>)
 8003194:	4313      	orrs	r3, r2
 8003196:	802b      	strh	r3, [r5, #0]
 8003198:	e6a0      	b.n	8002edc <USB_EPStartXfer+0x60>
 800319a:	2b3e      	cmp	r3, #62	@ 0x3e
 800319c:	d820      	bhi.n	80031e0 <USB_EPStartXfer+0x364>
 800319e:	2101      	movs	r1, #1
 80031a0:	085f      	lsrs	r7, r3, #1
 80031a2:	4019      	ands	r1, r3
 80031a4:	187f      	adds	r7, r7, r1
 80031a6:	8811      	ldrh	r1, [r2, #0]
 80031a8:	02bf      	lsls	r7, r7, #10
 80031aa:	4339      	orrs	r1, r7
 80031ac:	b289      	uxth	r1, r1
 80031ae:	e7c3      	b.n	8003138 <USB_EPStartXfer+0x2bc>
 80031b0:	00000402 	.word	0x00000402
 80031b4:	ffff8fbf 	.word	0xffff8fbf
 80031b8:	ffff8080 	.word	0xffff8080
 80031bc:	ffff8f8f 	.word	0xffff8f8f
 80031c0:	00008180 	.word	0x00008180
 80031c4:	00000406 	.word	0x00000406
 80031c8:	ffff8000 	.word	0xffff8000
 80031cc:	ffff8e8f 	.word	0xffff8e8f
 80031d0:	00004040 	.word	0x00004040
 80031d4:	000080c0 	.word	0x000080c0
 80031d8:	ffffbf8f 	.word	0xffffbf8f
 80031dc:	00008080 	.word	0x00008080
 80031e0:	271f      	movs	r7, #31
 80031e2:	401f      	ands	r7, r3
 80031e4:	0039      	movs	r1, r7
 80031e6:	424f      	negs	r7, r1
 80031e8:	414f      	adcs	r7, r1
 80031ea:	0959      	lsrs	r1, r3, #5
 80031ec:	1bc9      	subs	r1, r1, r7
 80031ee:	8817      	ldrh	r7, [r2, #0]
 80031f0:	9101      	str	r1, [sp, #4]
 80031f2:	0289      	lsls	r1, r1, #10
 80031f4:	430f      	orrs	r7, r1
 80031f6:	4937      	ldr	r1, [pc, #220]	@ (80032d4 <USB_EPStartXfer+0x458>)
 80031f8:	e7d7      	b.n	80031aa <USB_EPStartXfer+0x32e>
 80031fa:	2b3e      	cmp	r3, #62	@ 0x3e
 80031fc:	d808      	bhi.n	8003210 <USB_EPStartXfer+0x394>
 80031fe:	2001      	movs	r0, #1
 8003200:	0859      	lsrs	r1, r3, #1
 8003202:	4003      	ands	r3, r0
 8003204:	18c9      	adds	r1, r1, r3
 8003206:	8813      	ldrh	r3, [r2, #0]
 8003208:	0289      	lsls	r1, r1, #10
 800320a:	430b      	orrs	r3, r1
 800320c:	b29b      	uxth	r3, r3
 800320e:	e7a3      	b.n	8003158 <USB_EPStartXfer+0x2dc>
 8003210:	201f      	movs	r0, #31
 8003212:	0959      	lsrs	r1, r3, #5
 8003214:	4003      	ands	r3, r0
 8003216:	4258      	negs	r0, r3
 8003218:	4143      	adcs	r3, r0
 800321a:	1ac9      	subs	r1, r1, r3
 800321c:	8813      	ldrh	r3, [r2, #0]
 800321e:	0289      	lsls	r1, r1, #10
 8003220:	4319      	orrs	r1, r3
 8003222:	4b2c      	ldr	r3, [pc, #176]	@ (80032d4 <USB_EPStartXfer+0x458>)
 8003224:	e7f1      	b.n	800320a <USB_EPStartXfer+0x38e>
 8003226:	2001      	movs	r0, #1
 8003228:	4283      	cmp	r3, r0
 800322a:	d000      	beq.n	800322e <USB_EPStartXfer+0x3b2>
 800322c:	e657      	b.n	8002ede <USB_EPStartXfer+0x62>
 800322e:	69a3      	ldr	r3, [r4, #24]
 8003230:	6922      	ldr	r2, [r4, #16]
 8003232:	2000      	movs	r0, #0
 8003234:	4293      	cmp	r3, r2
 8003236:	d901      	bls.n	800323c <USB_EPStartXfer+0x3c0>
 8003238:	1a98      	subs	r0, r3, r2
 800323a:	0013      	movs	r3, r2
 800323c:	61a0      	str	r0, [r4, #24]
 800323e:	2900      	cmp	r1, #0
 8003240:	d19e      	bne.n	8003180 <USB_EPStartXfer+0x304>
 8003242:	002e      	movs	r6, r5
 8003244:	4a24      	ldr	r2, [pc, #144]	@ (80032d8 <USB_EPStartXfer+0x45c>)
 8003246:	3650      	adds	r6, #80	@ 0x50
 8003248:	8831      	ldrh	r1, [r6, #0]
 800324a:	7820      	ldrb	r0, [r4, #0]
 800324c:	18aa      	adds	r2, r5, r2
 800324e:	1852      	adds	r2, r2, r1
 8003250:	00c0      	lsls	r0, r0, #3
 8003252:	1812      	adds	r2, r2, r0
 8003254:	8811      	ldrh	r1, [r2, #0]
 8003256:	0589      	lsls	r1, r1, #22
 8003258:	0d89      	lsrs	r1, r1, #22
 800325a:	8011      	strh	r1, [r2, #0]
 800325c:	2b00      	cmp	r3, #0
 800325e:	d10a      	bne.n	8003276 <USB_EPStartXfer+0x3fa>
 8003260:	2780      	movs	r7, #128	@ 0x80
 8003262:	8811      	ldrh	r1, [r2, #0]
 8003264:	023f      	lsls	r7, r7, #8
 8003266:	4339      	orrs	r1, r7
 8003268:	8011      	strh	r1, [r2, #0]
 800326a:	4a1c      	ldr	r2, [pc, #112]	@ (80032dc <USB_EPStartXfer+0x460>)
 800326c:	8831      	ldrh	r1, [r6, #0]
 800326e:	18aa      	adds	r2, r5, r2
 8003270:	1852      	adds	r2, r2, r1
 8003272:	1812      	adds	r2, r2, r0
 8003274:	e739      	b.n	80030ea <USB_EPStartXfer+0x26e>
 8003276:	2b3e      	cmp	r3, #62	@ 0x3e
 8003278:	d808      	bhi.n	800328c <USB_EPStartXfer+0x410>
 800327a:	2101      	movs	r1, #1
 800327c:	085f      	lsrs	r7, r3, #1
 800327e:	4019      	ands	r1, r3
 8003280:	187f      	adds	r7, r7, r1
 8003282:	8811      	ldrh	r1, [r2, #0]
 8003284:	02bf      	lsls	r7, r7, #10
 8003286:	4339      	orrs	r1, r7
 8003288:	b289      	uxth	r1, r1
 800328a:	e7ed      	b.n	8003268 <USB_EPStartXfer+0x3ec>
 800328c:	271f      	movs	r7, #31
 800328e:	401f      	ands	r7, r3
 8003290:	0039      	movs	r1, r7
 8003292:	424f      	negs	r7, r1
 8003294:	414f      	adcs	r7, r1
 8003296:	0959      	lsrs	r1, r3, #5
 8003298:	1bc9      	subs	r1, r1, r7
 800329a:	8817      	ldrh	r7, [r2, #0]
 800329c:	9101      	str	r1, [sp, #4]
 800329e:	0289      	lsls	r1, r1, #10
 80032a0:	430f      	orrs	r7, r1
 80032a2:	490c      	ldr	r1, [pc, #48]	@ (80032d4 <USB_EPStartXfer+0x458>)
 80032a4:	e7ef      	b.n	8003286 <USB_EPStartXfer+0x40a>
 80032a6:	2b3e      	cmp	r3, #62	@ 0x3e
 80032a8:	d808      	bhi.n	80032bc <USB_EPStartXfer+0x440>
 80032aa:	2001      	movs	r0, #1
 80032ac:	0859      	lsrs	r1, r3, #1
 80032ae:	4003      	ands	r3, r0
 80032b0:	18c9      	adds	r1, r1, r3
 80032b2:	8813      	ldrh	r3, [r2, #0]
 80032b4:	0289      	lsls	r1, r1, #10
 80032b6:	430b      	orrs	r3, r1
 80032b8:	b29b      	uxth	r3, r3
 80032ba:	e721      	b.n	8003100 <USB_EPStartXfer+0x284>
 80032bc:	201f      	movs	r0, #31
 80032be:	0959      	lsrs	r1, r3, #5
 80032c0:	4003      	ands	r3, r0
 80032c2:	4258      	negs	r0, r3
 80032c4:	4143      	adcs	r3, r0
 80032c6:	1ac9      	subs	r1, r1, r3
 80032c8:	8813      	ldrh	r3, [r2, #0]
 80032ca:	0289      	lsls	r1, r1, #10
 80032cc:	4319      	orrs	r1, r3
 80032ce:	4b01      	ldr	r3, [pc, #4]	@ (80032d4 <USB_EPStartXfer+0x458>)
 80032d0:	e7f1      	b.n	80032b6 <USB_EPStartXfer+0x43a>
 80032d2:	46c0      	nop			@ (mov r8, r8)
 80032d4:	ffff8000 	.word	0xffff8000
 80032d8:	00000402 	.word	0x00000402
 80032dc:	00000406 	.word	0x00000406

080032e0 <USB_ReadPMA>:
 80032e0:	b5f0      	push	{r4, r5, r6, r7, lr}
 80032e2:	2580      	movs	r5, #128	@ 0x80
 80032e4:	085c      	lsrs	r4, r3, #1
 80032e6:	00ed      	lsls	r5, r5, #3
 80032e8:	1952      	adds	r2, r2, r5
 80032ea:	0026      	movs	r6, r4
 80032ec:	000d      	movs	r5, r1
 80032ee:	1880      	adds	r0, r0, r2
 80032f0:	1a47      	subs	r7, r0, r1
 80032f2:	19ea      	adds	r2, r5, r7
 80032f4:	2e00      	cmp	r6, #0
 80032f6:	d106      	bne.n	8003306 <USB_ReadPMA+0x26>
 80032f8:	07db      	lsls	r3, r3, #31
 80032fa:	d503      	bpl.n	8003304 <USB_ReadPMA+0x24>
 80032fc:	0064      	lsls	r4, r4, #1
 80032fe:	1900      	adds	r0, r0, r4
 8003300:	8803      	ldrh	r3, [r0, #0]
 8003302:	550b      	strb	r3, [r1, r4]
 8003304:	bdf0      	pop	{r4, r5, r6, r7, pc}
 8003306:	8812      	ldrh	r2, [r2, #0]
 8003308:	3e01      	subs	r6, #1
 800330a:	b292      	uxth	r2, r2
 800330c:	702a      	strb	r2, [r5, #0]
 800330e:	0a12      	lsrs	r2, r2, #8
 8003310:	706a      	strb	r2, [r5, #1]
 8003312:	3502      	adds	r5, #2
 8003314:	e7ed      	b.n	80032f2 <USB_ReadPMA+0x12>
	...

08003318 <USBD_CDC_EP0_RxReady>:
 8003318:	23af      	movs	r3, #175	@ 0xaf
 800331a:	009b      	lsls	r3, r3, #2
 800331c:	58c3      	ldr	r3, [r0, r3]
 800331e:	b570      	push	{r4, r5, r6, lr}
 8003320:	2b00      	cmp	r3, #0
 8003322:	d00e      	beq.n	8003342 <USBD_CDC_EP0_RxReady+0x2a>
 8003324:	22ae      	movs	r2, #174	@ 0xae
 8003326:	2580      	movs	r5, #128	@ 0x80
 8003328:	0092      	lsls	r2, r2, #2
 800332a:	5884      	ldr	r4, [r0, r2]
 800332c:	00ad      	lsls	r5, r5, #2
 800332e:	5d60      	ldrb	r0, [r4, r5]
 8003330:	28ff      	cmp	r0, #255	@ 0xff
 8003332:	d006      	beq.n	8003342 <USBD_CDC_EP0_RxReady+0x2a>
 8003334:	4a04      	ldr	r2, [pc, #16]	@ (8003348 <USBD_CDC_EP0_RxReady+0x30>)
 8003336:	689b      	ldr	r3, [r3, #8]
 8003338:	0021      	movs	r1, r4
 800333a:	5ca2      	ldrb	r2, [r4, r2]
 800333c:	4798      	blx	r3
 800333e:	23ff      	movs	r3, #255	@ 0xff
 8003340:	5563      	strb	r3, [r4, r5]
 8003342:	2000      	movs	r0, #0
 8003344:	bd70      	pop	{r4, r5, r6, pc}
 8003346:	46c0      	nop			@ (mov r8, r8)
 8003348:	00000201 	.word	0x00000201

0800334c <USBD_CDC_GetFSCfgDesc>:
 800334c:	2343      	movs	r3, #67	@ 0x43
 800334e:	8003      	strh	r3, [r0, #0]
 8003350:	4800      	ldr	r0, [pc, #0]	@ (8003354 <USBD_CDC_GetFSCfgDesc+0x8>)
 8003352:	4770      	bx	lr
 8003354:	20000090 	.word	0x20000090

08003358 <USBD_CDC_GetHSCfgDesc>:
 8003358:	2343      	movs	r3, #67	@ 0x43
 800335a:	8003      	strh	r3, [r0, #0]
 800335c:	4800      	ldr	r0, [pc, #0]	@ (8003360 <USBD_CDC_GetHSCfgDesc+0x8>)
 800335e:	4770      	bx	lr
 8003360:	200000d4 	.word	0x200000d4

08003364 <USBD_CDC_GetOtherSpeedCfgDesc>:
 8003364:	2343      	movs	r3, #67	@ 0x43
 8003366:	8003      	strh	r3, [r0, #0]
 8003368:	4800      	ldr	r0, [pc, #0]	@ (800336c <USBD_CDC_GetOtherSpeedCfgDesc+0x8>)
 800336a:	4770      	bx	lr
 800336c:	2000004c 	.word	0x2000004c

08003370 <USBD_CDC_GetDeviceQualifierDescriptor>:
 8003370:	230a      	movs	r3, #10
 8003372:	8003      	strh	r3, [r0, #0]
 8003374:	4800      	ldr	r0, [pc, #0]	@ (8003378 <USBD_CDC_GetDeviceQualifierDescriptor+0x8>)
 8003376:	4770      	bx	lr
 8003378:	20000150 	.word	0x20000150

0800337c <USBD_CDC_DataOut>:
 800337c:	b570      	push	{r4, r5, r6, lr}
 800337e:	26ae      	movs	r6, #174	@ 0xae
 8003380:	00b6      	lsls	r6, r6, #2
 8003382:	0004      	movs	r4, r0
 8003384:	5985      	ldr	r5, [r0, r6]
 8003386:	f000 ff3f 	bl	8004208 <USBD_LL_GetRxDataSize>
 800338a:	2383      	movs	r3, #131	@ 0x83
 800338c:	009b      	lsls	r3, r3, #2
 800338e:	50e8      	str	r0, [r5, r3]
 8003390:	59a3      	ldr	r3, [r4, r6]
 8003392:	2002      	movs	r0, #2
 8003394:	2b00      	cmp	r3, #0
 8003396:	d00a      	beq.n	80033ae <USBD_CDC_DataOut+0x32>
 8003398:	2383      	movs	r3, #131	@ 0x83
 800339a:	2281      	movs	r2, #129	@ 0x81
 800339c:	009b      	lsls	r3, r3, #2
 800339e:	18e9      	adds	r1, r5, r3
 80033a0:	33b0      	adds	r3, #176	@ 0xb0
 80033a2:	58e3      	ldr	r3, [r4, r3]
 80033a4:	0092      	lsls	r2, r2, #2
 80033a6:	68db      	ldr	r3, [r3, #12]
 80033a8:	58a8      	ldr	r0, [r5, r2]
 80033aa:	4798      	blx	r3
 80033ac:	2000      	movs	r0, #0
 80033ae:	bd70      	pop	{r4, r5, r6, pc}

080033b0 <USBD_CDC_DataIn>:
 80033b0:	b5f8      	push	{r3, r4, r5, r6, r7, lr}
 80033b2:	23ae      	movs	r3, #174	@ 0xae
 80033b4:	009b      	lsls	r3, r3, #2
 80033b6:	58c7      	ldr	r7, [r0, r3]
 80033b8:	0004      	movs	r4, r0
 80033ba:	000e      	movs	r6, r1
 80033bc:	2002      	movs	r0, #2
 80033be:	2f00      	cmp	r7, #0
 80033c0:	d016      	beq.n	80033f0 <USBD_CDC_DataIn+0x40>
 80033c2:	2514      	movs	r5, #20
 80033c4:	434d      	muls	r5, r1
 80033c6:	1965      	adds	r5, r4, r5
 80033c8:	69e8      	ldr	r0, [r5, #28]
 80033ca:	3308      	adds	r3, #8
 80033cc:	58e3      	ldr	r3, [r4, r3]
 80033ce:	2800      	cmp	r0, #0
 80033d0:	d00f      	beq.n	80033f2 <USBD_CDC_DataIn+0x42>
 80033d2:	2228      	movs	r2, #40	@ 0x28
 80033d4:	434a      	muls	r2, r1
 80033d6:	189b      	adds	r3, r3, r2
 80033d8:	6a19      	ldr	r1, [r3, #32]
 80033da:	f7fc ff37 	bl	800024c <__aeabi_uidivmod>
 80033de:	1e0a      	subs	r2, r1, #0
 80033e0:	d107      	bne.n	80033f2 <USBD_CDC_DataIn+0x42>
 80033e2:	000b      	movs	r3, r1
 80033e4:	61e9      	str	r1, [r5, #28]
 80033e6:	0020      	movs	r0, r4
 80033e8:	0031      	movs	r1, r6
 80033ea:	f000 fefb 	bl	80041e4 <USBD_LL_Transmit>
 80033ee:	2000      	movs	r0, #0
 80033f0:	bdf8      	pop	{r3, r4, r5, r6, r7, pc}
 80033f2:	2385      	movs	r3, #133	@ 0x85
 80033f4:	2200      	movs	r2, #0
 80033f6:	009b      	lsls	r3, r3, #2
 80033f8:	50fa      	str	r2, [r7, r3]
 80033fa:	e7f8      	b.n	80033ee <USBD_CDC_DataIn+0x3e>

080033fc <USBD_CDC_Setup>:
 80033fc:	23ae      	movs	r3, #174	@ 0xae
 80033fe:	b5f7      	push	{r0, r1, r2, r4, r5, r6, r7, lr}
 8003400:	009b      	lsls	r3, r3, #2
 8003402:	58c6      	ldr	r6, [r0, r3]
 8003404:	466b      	mov	r3, sp
 8003406:	466a      	mov	r2, sp
 8003408:	000d      	movs	r5, r1
 800340a:	1d59      	adds	r1, r3, #5
 800340c:	2300      	movs	r3, #0
 800340e:	0004      	movs	r4, r0
 8003410:	700b      	strb	r3, [r1, #0]
 8003412:	80d3      	strh	r3, [r2, #6]
 8003414:	782b      	ldrb	r3, [r5, #0]
 8003416:	1d90      	adds	r0, r2, #6
 8003418:	001f      	movs	r7, r3
 800341a:	2260      	movs	r2, #96	@ 0x60
 800341c:	4017      	ands	r7, r2
 800341e:	4213      	tst	r3, r2
 8003420:	d026      	beq.n	8003470 <USBD_CDC_Setup+0x74>
 8003422:	2f20      	cmp	r7, #32
 8003424:	d13f      	bne.n	80034a6 <USBD_CDC_Setup+0xaa>
 8003426:	88ea      	ldrh	r2, [r5, #6]
 8003428:	7868      	ldrb	r0, [r5, #1]
 800342a:	2a00      	cmp	r2, #0
 800342c:	d019      	beq.n	8003462 <USBD_CDC_Setup+0x66>
 800342e:	b25b      	sxtb	r3, r3
 8003430:	2b00      	cmp	r3, #0
 8003432:	da0b      	bge.n	800344c <USBD_CDC_Setup+0x50>
 8003434:	23af      	movs	r3, #175	@ 0xaf
 8003436:	009b      	lsls	r3, r3, #2
 8003438:	58e3      	ldr	r3, [r4, r3]
 800343a:	0031      	movs	r1, r6
 800343c:	689b      	ldr	r3, [r3, #8]
 800343e:	4798      	blx	r3
 8003440:	0031      	movs	r1, r6
 8003442:	88ea      	ldrh	r2, [r5, #6]
 8003444:	0020      	movs	r0, r4
 8003446:	f000 fc94 	bl	8003d72 <USBD_CtlSendData>
 800344a:	e008      	b.n	800345e <USBD_CDC_Setup+0x62>
 800344c:	2380      	movs	r3, #128	@ 0x80
 800344e:	009b      	lsls	r3, r3, #2
 8003450:	54f0      	strb	r0, [r6, r3]
 8003452:	4b18      	ldr	r3, [pc, #96]	@ (80034b4 <USBD_CDC_Setup+0xb8>)
 8003454:	0031      	movs	r1, r6
 8003456:	0020      	movs	r0, r4
 8003458:	54f2      	strb	r2, [r6, r3]
 800345a:	f000 fca0 	bl	8003d9e <USBD_CtlPrepareRx>
 800345e:	2000      	movs	r0, #0
 8003460:	bdfe      	pop	{r1, r2, r3, r4, r5, r6, r7, pc}
 8003462:	23af      	movs	r3, #175	@ 0xaf
 8003464:	009b      	lsls	r3, r3, #2
 8003466:	58e3      	ldr	r3, [r4, r3]
 8003468:	0029      	movs	r1, r5
 800346a:	689b      	ldr	r3, [r3, #8]
 800346c:	4798      	blx	r3
 800346e:	e7f6      	b.n	800345e <USBD_CDC_Setup+0x62>
 8003470:	786b      	ldrb	r3, [r5, #1]
 8003472:	2b0a      	cmp	r3, #10
 8003474:	d00b      	beq.n	800348e <USBD_CDC_Setup+0x92>
 8003476:	2b0b      	cmp	r3, #11
 8003478:	d010      	beq.n	800349c <USBD_CDC_Setup+0xa0>
 800347a:	2b00      	cmp	r3, #0
 800347c:	d113      	bne.n	80034a6 <USBD_CDC_Setup+0xaa>
 800347e:	23a7      	movs	r3, #167	@ 0xa7
 8003480:	009b      	lsls	r3, r3, #2
 8003482:	5ce3      	ldrb	r3, [r4, r3]
 8003484:	2b03      	cmp	r3, #3
 8003486:	d10e      	bne.n	80034a6 <USBD_CDC_Setup+0xaa>
 8003488:	2202      	movs	r2, #2
 800348a:	0001      	movs	r1, r0
 800348c:	e7da      	b.n	8003444 <USBD_CDC_Setup+0x48>
 800348e:	23a7      	movs	r3, #167	@ 0xa7
 8003490:	009b      	lsls	r3, r3, #2
 8003492:	5ce3      	ldrb	r3, [r4, r3]
 8003494:	2b03      	cmp	r3, #3
 8003496:	d106      	bne.n	80034a6 <USBD_CDC_Setup+0xaa>
 8003498:	2201      	movs	r2, #1
 800349a:	e7d3      	b.n	8003444 <USBD_CDC_Setup+0x48>
 800349c:	23a7      	movs	r3, #167	@ 0xa7
 800349e:	009b      	lsls	r3, r3, #2
 80034a0:	5ce3      	ldrb	r3, [r4, r3]
 80034a2:	2b03      	cmp	r3, #3
 80034a4:	d0db      	beq.n	800345e <USBD_CDC_Setup+0x62>
 80034a6:	0020      	movs	r0, r4
 80034a8:	0029      	movs	r1, r5
 80034aa:	f000 fc3b 	bl	8003d24 <USBD_CtlError>
 80034ae:	2002      	movs	r0, #2
 80034b0:	e7d6      	b.n	8003460 <USBD_CDC_Setup+0x64>
 80034b2:	46c0      	nop			@ (mov r8, r8)
 80034b4:	00000201 	.word	0x00000201

080034b8 <USBD_CDC_DeInit>:
 80034b8:	b570      	push	{r4, r5, r6, lr}
 80034ba:	0004      	movs	r4, r0
 80034bc:	2500      	movs	r5, #0
 80034be:	2181      	movs	r1, #129	@ 0x81
 80034c0:	f000 fe59 	bl	8004176 <USBD_LL_CloseEP>
 80034c4:	2101      	movs	r1, #1
 80034c6:	0020      	movs	r0, r4
 80034c8:	62e5      	str	r5, [r4, #44]	@ 0x2c
 80034ca:	f000 fe54 	bl	8004176 <USBD_LL_CloseEP>
 80034ce:	0023      	movs	r3, r4
 80034d0:	26ae      	movs	r6, #174	@ 0xae
 80034d2:	33fc      	adds	r3, #252	@ 0xfc
 80034d4:	671d      	str	r5, [r3, #112]	@ 0x70
 80034d6:	2182      	movs	r1, #130	@ 0x82
 80034d8:	0020      	movs	r0, r4
 80034da:	00b6      	lsls	r6, r6, #2
 80034dc:	f000 fe4b 	bl	8004176 <USBD_LL_CloseEP>
 80034e0:	59a3      	ldr	r3, [r4, r6]
 80034e2:	6425      	str	r5, [r4, #64]	@ 0x40
 80034e4:	42ab      	cmp	r3, r5
 80034e6:	d008      	beq.n	80034fa <USBD_CDC_DeInit+0x42>
 80034e8:	23af      	movs	r3, #175	@ 0xaf
 80034ea:	009b      	lsls	r3, r3, #2
 80034ec:	58e3      	ldr	r3, [r4, r3]
 80034ee:	685b      	ldr	r3, [r3, #4]
 80034f0:	4798      	blx	r3
 80034f2:	59a0      	ldr	r0, [r4, r6]
 80034f4:	f000 fe94 	bl	8004220 <USBD_static_free>
 80034f8:	51a5      	str	r5, [r4, r6]
 80034fa:	2000      	movs	r0, #0
 80034fc:	bd70      	pop	{r4, r5, r6, pc}

080034fe <USBD_CDC_Init>:
 80034fe:	b570      	push	{r4, r5, r6, lr}
 8003500:	7c03      	ldrb	r3, [r0, #16]
 8003502:	0004      	movs	r4, r0
 8003504:	2b00      	cmp	r3, #0
 8003506:	d13a      	bne.n	800357e <USBD_CDC_Init+0x80>
 8003508:	2380      	movs	r3, #128	@ 0x80
 800350a:	2181      	movs	r1, #129	@ 0x81
 800350c:	009b      	lsls	r3, r3, #2
 800350e:	2202      	movs	r2, #2
 8003510:	f000 fe25 	bl	800415e <USBD_LL_OpenEP>
 8003514:	2101      	movs	r1, #1
 8003516:	2380      	movs	r3, #128	@ 0x80
 8003518:	62e1      	str	r1, [r4, #44]	@ 0x2c
 800351a:	009b      	lsls	r3, r3, #2
 800351c:	2202      	movs	r2, #2
 800351e:	0020      	movs	r0, r4
 8003520:	f000 fe1d 	bl	800415e <USBD_LL_OpenEP>
 8003524:	0023      	movs	r3, r4
 8003526:	2601      	movs	r6, #1
 8003528:	33fc      	adds	r3, #252	@ 0xfc
 800352a:	2203      	movs	r2, #3
 800352c:	2182      	movs	r1, #130	@ 0x82
 800352e:	671e      	str	r6, [r3, #112]	@ 0x70
 8003530:	0020      	movs	r0, r4
 8003532:	2308      	movs	r3, #8
 8003534:	f000 fe13 	bl	800415e <USBD_LL_OpenEP>
 8003538:	2087      	movs	r0, #135	@ 0x87
 800353a:	6426      	str	r6, [r4, #64]	@ 0x40
 800353c:	0080      	lsls	r0, r0, #2
 800353e:	f000 fe6b 	bl	8004218 <USBD_static_malloc>
 8003542:	23ae      	movs	r3, #174	@ 0xae
 8003544:	009b      	lsls	r3, r3, #2
 8003546:	0005      	movs	r5, r0
 8003548:	50e0      	str	r0, [r4, r3]
 800354a:	0030      	movs	r0, r6
 800354c:	2d00      	cmp	r5, #0
 800354e:	d015      	beq.n	800357c <USBD_CDC_Init+0x7e>
 8003550:	3304      	adds	r3, #4
 8003552:	58e3      	ldr	r3, [r4, r3]
 8003554:	681b      	ldr	r3, [r3, #0]
 8003556:	4798      	blx	r3
 8003558:	2285      	movs	r2, #133	@ 0x85
 800355a:	2300      	movs	r3, #0
 800355c:	0092      	lsls	r2, r2, #2
 800355e:	50ab      	str	r3, [r5, r2]
 8003560:	3204      	adds	r2, #4
 8003562:	50ab      	str	r3, [r5, r2]
 8003564:	7c23      	ldrb	r3, [r4, #16]
 8003566:	3a14      	subs	r2, #20
 8003568:	2b00      	cmp	r3, #0
 800356a:	d111      	bne.n	8003590 <USBD_CDC_Init+0x92>
 800356c:	2380      	movs	r3, #128	@ 0x80
 800356e:	009b      	lsls	r3, r3, #2
 8003570:	0031      	movs	r1, r6
 8003572:	0020      	movs	r0, r4
 8003574:	58aa      	ldr	r2, [r5, r2]
 8003576:	f000 fe3e 	bl	80041f6 <USBD_LL_PrepareReceive>
 800357a:	2000      	movs	r0, #0
 800357c:	bd70      	pop	{r4, r5, r6, pc}
 800357e:	2340      	movs	r3, #64	@ 0x40
 8003580:	2181      	movs	r1, #129	@ 0x81
 8003582:	2202      	movs	r2, #2
 8003584:	f000 fdeb 	bl	800415e <USBD_LL_OpenEP>
 8003588:	2101      	movs	r1, #1
 800358a:	2340      	movs	r3, #64	@ 0x40
 800358c:	62e1      	str	r1, [r4, #44]	@ 0x2c
 800358e:	e7c5      	b.n	800351c <USBD_CDC_Init+0x1e>
 8003590:	2340      	movs	r3, #64	@ 0x40
 8003592:	e7ed      	b.n	8003570 <USBD_CDC_Init+0x72>

08003594 <USBD_CDC_RegisterInterface>:
 8003594:	0003      	movs	r3, r0
 8003596:	2002      	movs	r0, #2
 8003598:	2900      	cmp	r1, #0
 800359a:	d003      	beq.n	80035a4 <USBD_CDC_RegisterInterface+0x10>
 800359c:	22af      	movs	r2, #175	@ 0xaf
 800359e:	2000      	movs	r0, #0
 80035a0:	0092      	lsls	r2, r2, #2
 80035a2:	5099      	str	r1, [r3, r2]
 80035a4:	4770      	bx	lr

080035a6 <USBD_CDC_SetTxBuffer>:
 80035a6:	23ae      	movs	r3, #174	@ 0xae
 80035a8:	009b      	lsls	r3, r3, #2
 80035aa:	58c3      	ldr	r3, [r0, r3]
 80035ac:	2082      	movs	r0, #130	@ 0x82
 80035ae:	0080      	lsls	r0, r0, #2
 80035b0:	5019      	str	r1, [r3, r0]
 80035b2:	2184      	movs	r1, #132	@ 0x84
 80035b4:	0089      	lsls	r1, r1, #2
 80035b6:	2000      	movs	r0, #0
 80035b8:	505a      	str	r2, [r3, r1]
 80035ba:	4770      	bx	lr

080035bc <USBD_CDC_SetRxBuffer>:
 80035bc:	23ae      	movs	r3, #174	@ 0xae
 80035be:	009b      	lsls	r3, r3, #2
 80035c0:	58c2      	ldr	r2, [r0, r3]
 80035c2:	3bb4      	subs	r3, #180	@ 0xb4
 80035c4:	2000      	movs	r0, #0
 80035c6:	50d1      	str	r1, [r2, r3]
 80035c8:	4770      	bx	lr

080035ca <USBD_CDC_TransmitPacket>:
 80035ca:	23ae      	movs	r3, #174	@ 0xae
 80035cc:	009b      	lsls	r3, r3, #2
 80035ce:	58c2      	ldr	r2, [r0, r3]
 80035d0:	b510      	push	{r4, lr}
 80035d2:	2302      	movs	r3, #2
 80035d4:	2a00      	cmp	r2, #0
 80035d6:	d012      	beq.n	80035fe <USBD_CDC_TransmitPacket+0x34>
 80035d8:	2185      	movs	r1, #133	@ 0x85
 80035da:	0089      	lsls	r1, r1, #2
 80035dc:	5854      	ldr	r4, [r2, r1]
 80035de:	3b01      	subs	r3, #1
 80035e0:	2c00      	cmp	r4, #0
 80035e2:	d10c      	bne.n	80035fe <USBD_CDC_TransmitPacket+0x34>
 80035e4:	5053      	str	r3, [r2, r1]
 80035e6:	2384      	movs	r3, #132	@ 0x84
 80035e8:	009b      	lsls	r3, r3, #2
 80035ea:	58d3      	ldr	r3, [r2, r3]
 80035ec:	390c      	subs	r1, #12
 80035ee:	5852      	ldr	r2, [r2, r1]
 80035f0:	3988      	subs	r1, #136	@ 0x88
 80035f2:	6303      	str	r3, [r0, #48]	@ 0x30
 80035f4:	39ff      	subs	r1, #255	@ 0xff
 80035f6:	b29b      	uxth	r3, r3
 80035f8:	f000 fdf4 	bl	80041e4 <USBD_LL_Transmit>
 80035fc:	0023      	movs	r3, r4
 80035fe:	0018      	movs	r0, r3
 8003600:	bd10      	pop	{r4, pc}

08003602 <USBD_CDC_ReceivePacket>:
 8003602:	23ae      	movs	r3, #174	@ 0xae
 8003604:	009b      	lsls	r3, r3, #2
 8003606:	58c2      	ldr	r2, [r0, r3]
 8003608:	b510      	push	{r4, lr}
 800360a:	2302      	movs	r3, #2
 800360c:	2a00      	cmp	r2, #0
 800360e:	d00b      	beq.n	8003628 <USBD_CDC_ReceivePacket+0x26>
 8003610:	2381      	movs	r3, #129	@ 0x81
 8003612:	009b      	lsls	r3, r3, #2
 8003614:	58d2      	ldr	r2, [r2, r3]
 8003616:	7c03      	ldrb	r3, [r0, #16]
 8003618:	2b00      	cmp	r3, #0
 800361a:	d107      	bne.n	800362c <USBD_CDC_ReceivePacket+0x2a>
 800361c:	2380      	movs	r3, #128	@ 0x80
 800361e:	009b      	lsls	r3, r3, #2
 8003620:	2101      	movs	r1, #1
 8003622:	f000 fde8 	bl	80041f6 <USBD_LL_PrepareReceive>
 8003626:	2300      	movs	r3, #0
 8003628:	0018      	movs	r0, r3
 800362a:	bd10      	pop	{r4, pc}
 800362c:	2340      	movs	r3, #64	@ 0x40
 800362e:	e7f7      	b.n	8003620 <USBD_CDC_ReceivePacket+0x1e>

08003630 <USBD_Init>:
 8003630:	2302      	movs	r3, #2
 8003632:	b510      	push	{r4, lr}
 8003634:	2800      	cmp	r0, #0
 8003636:	d013      	beq.n	8003660 <USBD_Init+0x30>
 8003638:	23ad      	movs	r3, #173	@ 0xad
 800363a:	009b      	lsls	r3, r3, #2
 800363c:	58c4      	ldr	r4, [r0, r3]
 800363e:	2c00      	cmp	r4, #0
 8003640:	d001      	beq.n	8003646 <USBD_Init+0x16>
 8003642:	2400      	movs	r4, #0
 8003644:	50c4      	str	r4, [r0, r3]
 8003646:	2900      	cmp	r1, #0
 8003648:	d002      	beq.n	8003650 <USBD_Init+0x20>
 800364a:	23ac      	movs	r3, #172	@ 0xac
 800364c:	009b      	lsls	r3, r3, #2
 800364e:	50c1      	str	r1, [r0, r3]
 8003650:	23a7      	movs	r3, #167	@ 0xa7
 8003652:	2101      	movs	r1, #1
 8003654:	009b      	lsls	r3, r3, #2
 8003656:	54c1      	strb	r1, [r0, r3]
 8003658:	7002      	strb	r2, [r0, #0]
 800365a:	f000 fd37 	bl	80040cc <USBD_LL_Init>
 800365e:	2300      	movs	r3, #0
 8003660:	0018      	movs	r0, r3
 8003662:	bd10      	pop	{r4, pc}

08003664 <USBD_RegisterClass>:
 8003664:	0003      	movs	r3, r0
 8003666:	2002      	movs	r0, #2
 8003668:	2900      	cmp	r1, #0
 800366a:	d003      	beq.n	8003674 <USBD_RegisterClass+0x10>
 800366c:	22ad      	movs	r2, #173	@ 0xad
 800366e:	2000      	movs	r0, #0
 8003670:	0092      	lsls	r2, r2, #2
 8003672:	5099      	str	r1, [r3, r2]
 8003674:	4770      	bx	lr

08003676 <USBD_Start>:
 8003676:	b510      	push	{r4, lr}
 8003678:	f000 fd68 	bl	800414c <USBD_LL_Start>
 800367c:	2000      	movs	r0, #0
 800367e:	bd10      	pop	{r4, pc}

08003680 <USBD_SetClassConfig>:
 8003680:	23ad      	movs	r3, #173	@ 0xad
 8003682:	009b      	lsls	r3, r3, #2
 8003684:	58c2      	ldr	r2, [r0, r3]
 8003686:	b510      	push	{r4, lr}
 8003688:	2302      	movs	r3, #2
 800368a:	2a00      	cmp	r2, #0
 800368c:	d004      	beq.n	8003698 <USBD_SetClassConfig+0x18>
 800368e:	6813      	ldr	r3, [r2, #0]
 8003690:	4798      	blx	r3
 8003692:	1e43      	subs	r3, r0, #1
 8003694:	4198      	sbcs	r0, r3
 8003696:	0043      	lsls	r3, r0, #1
 8003698:	0018      	movs	r0, r3
 800369a:	bd10      	pop	{r4, pc}

0800369c <USBD_ClrClassConfig>:
 800369c:	23ad      	movs	r3, #173	@ 0xad
 800369e:	b510      	push	{r4, lr}
 80036a0:	009b      	lsls	r3, r3, #2
 80036a2:	58c3      	ldr	r3, [r0, r3]
 80036a4:	685b      	ldr	r3, [r3, #4]
 80036a6:	4798      	blx	r3
 80036a8:	2000      	movs	r0, #0
 80036aa:	bd10      	pop	{r4, pc}

080036ac <USBD_LL_SetupStage>:
 80036ac:	23aa      	movs	r3, #170	@ 0xaa
 80036ae:	009b      	lsls	r3, r3, #2
 80036b0:	b570      	push	{r4, r5, r6, lr}
 80036b2:	18c5      	adds	r5, r0, r3
 80036b4:	0004      	movs	r4, r0
 80036b6:	0028      	movs	r0, r5
 80036b8:	f000 fb20 	bl	8003cfc <USBD_ParseSetupRequest>
 80036bc:	23a5      	movs	r3, #165	@ 0xa5
 80036be:	2201      	movs	r2, #1
 80036c0:	009b      	lsls	r3, r3, #2
 80036c2:	50e2      	str	r2, [r4, r3]
 80036c4:	4b11      	ldr	r3, [pc, #68]	@ (800370c <USBD_LL_SetupStage+0x60>)
 80036c6:	5ae2      	ldrh	r2, [r4, r3]
 80036c8:	3b16      	subs	r3, #22
 80036ca:	50e2      	str	r2, [r4, r3]
 80036cc:	3310      	adds	r3, #16
 80036ce:	5ce1      	ldrb	r1, [r4, r3]
 80036d0:	231f      	movs	r3, #31
 80036d2:	400b      	ands	r3, r1
 80036d4:	2b01      	cmp	r3, #1
 80036d6:	d009      	beq.n	80036ec <USBD_LL_SetupStage+0x40>
 80036d8:	2b02      	cmp	r3, #2
 80036da:	d00c      	beq.n	80036f6 <USBD_LL_SetupStage+0x4a>
 80036dc:	2b00      	cmp	r3, #0
 80036de:	d10f      	bne.n	8003700 <USBD_LL_SetupStage+0x54>
 80036e0:	0029      	movs	r1, r5
 80036e2:	0020      	movs	r0, r4
 80036e4:	f000 f91a 	bl	800391c <USBD_StdDevReq>
 80036e8:	2000      	movs	r0, #0
 80036ea:	bd70      	pop	{r4, r5, r6, pc}
 80036ec:	0029      	movs	r1, r5
 80036ee:	0020      	movs	r0, r4
 80036f0:	f000 fa4a 	bl	8003b88 <USBD_StdItfReq>
 80036f4:	e7f8      	b.n	80036e8 <USBD_LL_SetupStage+0x3c>
 80036f6:	0029      	movs	r1, r5
 80036f8:	0020      	movs	r0, r4
 80036fa:	f000 fa6d 	bl	8003bd8 <USBD_StdEPReq>
 80036fe:	e7f3      	b.n	80036e8 <USBD_LL_SetupStage+0x3c>
 8003700:	237f      	movs	r3, #127	@ 0x7f
 8003702:	0020      	movs	r0, r4
 8003704:	4399      	bics	r1, r3
 8003706:	f000 fd3f 	bl	8004188 <USBD_LL_StallEP>
 800370a:	e7ed      	b.n	80036e8 <USBD_LL_SetupStage+0x3c>
 800370c:	000002ae 	.word	0x000002ae

08003710 <USBD_LL_DataOutStage>:
 8003710:	b570      	push	{r4, r5, r6, lr}
 8003712:	0004      	movs	r4, r0
 8003714:	0015      	movs	r5, r2
 8003716:	2900      	cmp	r1, #0
 8003718:	d12e      	bne.n	8003778 <USBD_LL_DataOutStage+0x68>
 800371a:	23a5      	movs	r3, #165	@ 0xa5
 800371c:	009b      	lsls	r3, r3, #2
 800371e:	58c2      	ldr	r2, [r0, r3]
 8003720:	2a03      	cmp	r2, #3
 8003722:	d123      	bne.n	800376c <USBD_LL_DataOutStage+0x5c>
 8003724:	0002      	movs	r2, r0
 8003726:	3255      	adds	r2, #85	@ 0x55
 8003728:	32ff      	adds	r2, #255	@ 0xff
 800372a:	68d3      	ldr	r3, [r2, #12]
 800372c:	6910      	ldr	r0, [r2, #16]
 800372e:	4283      	cmp	r3, r0
 8003730:	d90b      	bls.n	800374a <USBD_LL_DataOutStage+0x3a>
 8003732:	1a1b      	subs	r3, r3, r0
 8003734:	60d3      	str	r3, [r2, #12]
 8003736:	b282      	uxth	r2, r0
 8003738:	4298      	cmp	r0, r3
 800373a:	d900      	bls.n	800373e <USBD_LL_DataOutStage+0x2e>
 800373c:	b29a      	uxth	r2, r3
 800373e:	0029      	movs	r1, r5
 8003740:	0020      	movs	r0, r4
 8003742:	f000 fb3c 	bl	8003dbe <USBD_CtlContinueRx>
 8003746:	2000      	movs	r0, #0
 8003748:	bd70      	pop	{r4, r5, r6, pc}
 800374a:	23ad      	movs	r3, #173	@ 0xad
 800374c:	009b      	lsls	r3, r3, #2
 800374e:	58e3      	ldr	r3, [r4, r3]
 8003750:	691b      	ldr	r3, [r3, #16]
 8003752:	2b00      	cmp	r3, #0
 8003754:	d006      	beq.n	8003764 <USBD_LL_DataOutStage+0x54>
 8003756:	22a7      	movs	r2, #167	@ 0xa7
 8003758:	0092      	lsls	r2, r2, #2
 800375a:	5ca2      	ldrb	r2, [r4, r2]
 800375c:	2a03      	cmp	r2, #3
 800375e:	d101      	bne.n	8003764 <USBD_LL_DataOutStage+0x54>
 8003760:	0020      	movs	r0, r4
 8003762:	4798      	blx	r3
 8003764:	0020      	movs	r0, r4
 8003766:	f000 fb32 	bl	8003dce <USBD_CtlSendStatus>
 800376a:	e7ec      	b.n	8003746 <USBD_LL_DataOutStage+0x36>
 800376c:	2a05      	cmp	r2, #5
 800376e:	d1ea      	bne.n	8003746 <USBD_LL_DataOutStage+0x36>
 8003770:	50c1      	str	r1, [r0, r3]
 8003772:	f000 fd09 	bl	8004188 <USBD_LL_StallEP>
 8003776:	e7e6      	b.n	8003746 <USBD_LL_DataOutStage+0x36>
 8003778:	23ad      	movs	r3, #173	@ 0xad
 800377a:	009b      	lsls	r3, r3, #2
 800377c:	58c3      	ldr	r3, [r0, r3]
 800377e:	2002      	movs	r0, #2
 8003780:	699b      	ldr	r3, [r3, #24]
 8003782:	2b00      	cmp	r3, #0
 8003784:	d0e0      	beq.n	8003748 <USBD_LL_DataOutStage+0x38>
 8003786:	22a7      	movs	r2, #167	@ 0xa7
 8003788:	0092      	lsls	r2, r2, #2
 800378a:	5ca2      	ldrb	r2, [r4, r2]
 800378c:	2a03      	cmp	r2, #3
 800378e:	d1db      	bne.n	8003748 <USBD_LL_DataOutStage+0x38>
 8003790:	0020      	movs	r0, r4
 8003792:	4798      	blx	r3
 8003794:	e7d7      	b.n	8003746 <USBD_LL_DataOutStage+0x36>

08003796 <USBD_LL_DataInStage>:
 8003796:	b5f8      	push	{r3, r4, r5, r6, r7, lr}
 8003798:	000d      	movs	r5, r1
 800379a:	0004      	movs	r4, r0
 800379c:	0011      	movs	r1, r2
 800379e:	2d00      	cmp	r5, #0
 80037a0:	d14d      	bne.n	800383e <USBD_LL_DataInStage+0xa8>
 80037a2:	23a5      	movs	r3, #165	@ 0xa5
 80037a4:	009b      	lsls	r3, r3, #2
 80037a6:	58c3      	ldr	r3, [r0, r3]
 80037a8:	2b02      	cmp	r3, #2
 80037aa:	d13e      	bne.n	800382a <USBD_LL_DataInStage+0x94>
 80037ac:	6a03      	ldr	r3, [r0, #32]
 80037ae:	6a46      	ldr	r6, [r0, #36]	@ 0x24
 80037b0:	42b3      	cmp	r3, r6
 80037b2:	d911      	bls.n	80037d8 <USBD_LL_DataInStage+0x42>
 80037b4:	1b9b      	subs	r3, r3, r6
 80037b6:	6203      	str	r3, [r0, #32]
 80037b8:	b29a      	uxth	r2, r3
 80037ba:	f000 fae8 	bl	8003d8e <USBD_CtlContinueSendData>
 80037be:	002b      	movs	r3, r5
 80037c0:	002a      	movs	r2, r5
 80037c2:	0029      	movs	r1, r5
 80037c4:	0020      	movs	r0, r4
 80037c6:	f000 fd16 	bl	80041f6 <USBD_LL_PrepareReceive>
 80037ca:	23a8      	movs	r3, #168	@ 0xa8
 80037cc:	009b      	lsls	r3, r3, #2
 80037ce:	5ce2      	ldrb	r2, [r4, r3]
 80037d0:	2a01      	cmp	r2, #1
 80037d2:	d031      	beq.n	8003838 <USBD_LL_DataInStage+0xa2>
 80037d4:	2000      	movs	r0, #0
 80037d6:	bdf8      	pop	{r3, r4, r5, r6, r7, pc}
 80037d8:	69c7      	ldr	r7, [r0, #28]
 80037da:	0031      	movs	r1, r6
 80037dc:	0038      	movs	r0, r7
 80037de:	f7fc fd35 	bl	800024c <__aeabi_uidivmod>
 80037e2:	1e0d      	subs	r5, r1, #0
 80037e4:	d10c      	bne.n	8003800 <USBD_LL_DataInStage+0x6a>
 80037e6:	42be      	cmp	r6, r7
 80037e8:	d80a      	bhi.n	8003800 <USBD_LL_DataInStage+0x6a>
 80037ea:	26a6      	movs	r6, #166	@ 0xa6
 80037ec:	00b6      	lsls	r6, r6, #2
 80037ee:	59a3      	ldr	r3, [r4, r6]
 80037f0:	429f      	cmp	r7, r3
 80037f2:	d205      	bcs.n	8003800 <USBD_LL_DataInStage+0x6a>
 80037f4:	000a      	movs	r2, r1
 80037f6:	0020      	movs	r0, r4
 80037f8:	f000 fac9 	bl	8003d8e <USBD_CtlContinueSendData>
 80037fc:	51a5      	str	r5, [r4, r6]
 80037fe:	e7de      	b.n	80037be <USBD_LL_DataInStage+0x28>
 8003800:	23ad      	movs	r3, #173	@ 0xad
 8003802:	009b      	lsls	r3, r3, #2
 8003804:	58e3      	ldr	r3, [r4, r3]
 8003806:	68db      	ldr	r3, [r3, #12]
 8003808:	2b00      	cmp	r3, #0
 800380a:	d006      	beq.n	800381a <USBD_LL_DataInStage+0x84>
 800380c:	22a7      	movs	r2, #167	@ 0xa7
 800380e:	0092      	lsls	r2, r2, #2
 8003810:	5ca2      	ldrb	r2, [r4, r2]
 8003812:	2a03      	cmp	r2, #3
 8003814:	d101      	bne.n	800381a <USBD_LL_DataInStage+0x84>
 8003816:	0020      	movs	r0, r4
 8003818:	4798      	blx	r3
 800381a:	2180      	movs	r1, #128	@ 0x80
 800381c:	0020      	movs	r0, r4
 800381e:	f000 fcb3 	bl	8004188 <USBD_LL_StallEP>
 8003822:	0020      	movs	r0, r4
 8003824:	f000 fadf 	bl	8003de6 <USBD_CtlReceiveStatus>
 8003828:	e7cf      	b.n	80037ca <USBD_LL_DataInStage+0x34>
 800382a:	2204      	movs	r2, #4
 800382c:	4393      	bics	r3, r2
 800382e:	d1cc      	bne.n	80037ca <USBD_LL_DataInStage+0x34>
 8003830:	2180      	movs	r1, #128	@ 0x80
 8003832:	f000 fca9 	bl	8004188 <USBD_LL_StallEP>
 8003836:	e7c8      	b.n	80037ca <USBD_LL_DataInStage+0x34>
 8003838:	2200      	movs	r2, #0
 800383a:	54e2      	strb	r2, [r4, r3]
 800383c:	e7ca      	b.n	80037d4 <USBD_LL_DataInStage+0x3e>
 800383e:	23ad      	movs	r3, #173	@ 0xad
 8003840:	009b      	lsls	r3, r3, #2
 8003842:	58c3      	ldr	r3, [r0, r3]
 8003844:	2002      	movs	r0, #2
 8003846:	695b      	ldr	r3, [r3, #20]
 8003848:	2b00      	cmp	r3, #0
 800384a:	d0c4      	beq.n	80037d6 <USBD_LL_DataInStage+0x40>
 800384c:	22a7      	movs	r2, #167	@ 0xa7
 800384e:	0092      	lsls	r2, r2, #2
 8003850:	5ca2      	ldrb	r2, [r4, r2]
 8003852:	2a03      	cmp	r2, #3
 8003854:	d1bf      	bne.n	80037d6 <USBD_LL_DataInStage+0x40>
 8003856:	0029      	movs	r1, r5
 8003858:	0020      	movs	r0, r4
 800385a:	4798      	blx	r3
 800385c:	e7ba      	b.n	80037d4 <USBD_LL_DataInStage+0x3e>

0800385e <USBD_LL_Reset>:
 800385e:	2200      	movs	r2, #0
 8003860:	b570      	push	{r4, r5, r6, lr}
 8003862:	0004      	movs	r4, r0
 8003864:	0011      	movs	r1, r2
 8003866:	2340      	movs	r3, #64	@ 0x40
 8003868:	f000 fc79 	bl	800415e <USBD_LL_OpenEP>
 800386c:	0023      	movs	r3, r4
 800386e:	2501      	movs	r5, #1
 8003870:	2640      	movs	r6, #64	@ 0x40
 8003872:	33fc      	adds	r3, #252	@ 0xfc
 8003874:	2180      	movs	r1, #128	@ 0x80
 8003876:	65dd      	str	r5, [r3, #92]	@ 0x5c
 8003878:	669e      	str	r6, [r3, #104]	@ 0x68
 800387a:	2200      	movs	r2, #0
 800387c:	0033      	movs	r3, r6
 800387e:	0020      	movs	r0, r4
 8003880:	f000 fc6d 	bl	800415e <USBD_LL_OpenEP>
 8003884:	23a7      	movs	r3, #167	@ 0xa7
 8003886:	2100      	movs	r1, #0
 8003888:	009b      	lsls	r3, r3, #2
 800388a:	61a5      	str	r5, [r4, #24]
 800388c:	6266      	str	r6, [r4, #36]	@ 0x24
 800388e:	54e5      	strb	r5, [r4, r3]
 8003890:	3b08      	subs	r3, #8
 8003892:	50e1      	str	r1, [r4, r3]
 8003894:	3310      	adds	r3, #16
 8003896:	6061      	str	r1, [r4, #4]
 8003898:	50e1      	str	r1, [r4, r3]
 800389a:	3314      	adds	r3, #20
 800389c:	58e3      	ldr	r3, [r4, r3]
 800389e:	428b      	cmp	r3, r1
 80038a0:	d005      	beq.n	80038ae <USBD_LL_Reset+0x50>
 80038a2:	23ad      	movs	r3, #173	@ 0xad
 80038a4:	009b      	lsls	r3, r3, #2
 80038a6:	58e3      	ldr	r3, [r4, r3]
 80038a8:	0020      	movs	r0, r4
 80038aa:	685b      	ldr	r3, [r3, #4]
 80038ac:	4798      	blx	r3
 80038ae:	2000      	movs	r0, #0
 80038b0:	bd70      	pop	{r4, r5, r6, pc}

080038b2 <USBD_LL_SetSpeed>:
 80038b2:	7401      	strb	r1, [r0, #16]
 80038b4:	2000      	movs	r0, #0
 80038b6:	4770      	bx	lr

080038b8 <USBD_LL_Suspend>:
 80038b8:	23a7      	movs	r3, #167	@ 0xa7
 80038ba:	009b      	lsls	r3, r3, #2
 80038bc:	5cc1      	ldrb	r1, [r0, r3]
 80038be:	4a03      	ldr	r2, [pc, #12]	@ (80038cc <USBD_LL_Suspend+0x14>)
 80038c0:	5481      	strb	r1, [r0, r2]
 80038c2:	2204      	movs	r2, #4
 80038c4:	54c2      	strb	r2, [r0, r3]
 80038c6:	2000      	movs	r0, #0
 80038c8:	4770      	bx	lr
 80038ca:	46c0      	nop			@ (mov r8, r8)
 80038cc:	0000029d 	.word	0x0000029d

080038d0 <USBD_LL_Resume>:
 80038d0:	23a7      	movs	r3, #167	@ 0xa7
 80038d2:	009b      	lsls	r3, r3, #2
 80038d4:	5cc2      	ldrb	r2, [r0, r3]
 80038d6:	2a04      	cmp	r2, #4
 80038d8:	d102      	bne.n	80038e0 <USBD_LL_Resume+0x10>
 80038da:	4a02      	ldr	r2, [pc, #8]	@ (80038e4 <USBD_LL_Resume+0x14>)
 80038dc:	5c82      	ldrb	r2, [r0, r2]
 80038de:	54c2      	strb	r2, [r0, r3]
 80038e0:	2000      	movs	r0, #0
 80038e2:	4770      	bx	lr
 80038e4:	0000029d 	.word	0x0000029d

080038e8 <USBD_LL_SOF>:
 80038e8:	23a7      	movs	r3, #167	@ 0xa7
 80038ea:	b510      	push	{r4, lr}
 80038ec:	009b      	lsls	r3, r3, #2
 80038ee:	5cc3      	ldrb	r3, [r0, r3]
 80038f0:	2b03      	cmp	r3, #3
 80038f2:	d106      	bne.n	8003902 <USBD_LL_SOF+0x1a>
 80038f4:	23ad      	movs	r3, #173	@ 0xad
 80038f6:	009b      	lsls	r3, r3, #2
 80038f8:	58c3      	ldr	r3, [r0, r3]
 80038fa:	69db      	ldr	r3, [r3, #28]
 80038fc:	2b00      	cmp	r3, #0
 80038fe:	d000      	beq.n	8003902 <USBD_LL_SOF+0x1a>
 8003900:	4798      	blx	r3
 8003902:	2000      	movs	r0, #0
 8003904:	bd10      	pop	{r4, pc}

08003906 <USBD_CtlError.constprop.0>:
 8003906:	b510      	push	{r4, lr}
 8003908:	0004      	movs	r4, r0
 800390a:	2180      	movs	r1, #128	@ 0x80
 800390c:	f000 fc3c 	bl	8004188 <USBD_LL_StallEP>
 8003910:	2100      	movs	r1, #0
 8003912:	0020      	movs	r0, r4
 8003914:	f000 fc38 	bl	8004188 <USBD_LL_StallEP>
 8003918:	bd10      	pop	{r4, pc}
	...

0800391c <USBD_StdDevReq>:
 800391c:	2260      	movs	r2, #96	@ 0x60
 800391e:	780b      	ldrb	r3, [r1, #0]
 8003920:	b573      	push	{r0, r1, r4, r5, r6, lr}
 8003922:	4013      	ands	r3, r2
 8003924:	000d      	movs	r5, r1
 8003926:	0019      	movs	r1, r3
 8003928:	1892      	adds	r2, r2, r2
 800392a:	3920      	subs	r1, #32
 800392c:	0004      	movs	r4, r0
 800392e:	4211      	tst	r1, r2
 8003930:	d012      	beq.n	8003958 <USBD_StdDevReq+0x3c>
 8003932:	2b00      	cmp	r3, #0
 8003934:	d000      	beq.n	8003938 <USBD_StdDevReq+0x1c>
 8003936:	e096      	b.n	8003a66 <USBD_StdDevReq+0x14a>
 8003938:	7868      	ldrb	r0, [r5, #1]
 800393a:	2809      	cmp	r0, #9
 800393c:	d900      	bls.n	8003940 <USBD_StdDevReq+0x24>
 800393e:	e092      	b.n	8003a66 <USBD_StdDevReq+0x14a>
 8003940:	f7fc fbf4 	bl	800012c <__gnu_thumb1_case_uhi>
 8003944:	010d00f0 	.word	0x010d00f0
 8003948:	01050091 	.word	0x01050091
 800394c:	00830091 	.word	0x00830091
 8003950:	00910012 	.word	0x00910012
 8003954:	00a400da 	.word	0x00a400da
 8003958:	23ad      	movs	r3, #173	@ 0xad
 800395a:	009b      	lsls	r3, r3, #2
 800395c:	58c3      	ldr	r3, [r0, r3]
 800395e:	0029      	movs	r1, r5
 8003960:	689b      	ldr	r3, [r3, #8]
 8003962:	4798      	blx	r3
 8003964:	2000      	movs	r0, #0
 8003966:	bd76      	pop	{r1, r2, r4, r5, r6, pc}
 8003968:	2300      	movs	r3, #0
 800396a:	466a      	mov	r2, sp
 800396c:	80d3      	strh	r3, [r2, #6]
 800396e:	886b      	ldrh	r3, [r5, #2]
 8003970:	0a18      	lsrs	r0, r3, #8
 8003972:	3801      	subs	r0, #1
 8003974:	2806      	cmp	r0, #6
 8003976:	d876      	bhi.n	8003a66 <USBD_StdDevReq+0x14a>
 8003978:	f7fc fbce 	bl	8000118 <__gnu_thumb1_case_uqi>
 800397c:	75261704 	.word	0x75261704
 8003980:	4075      	.short	0x4075
 8003982:	4b          	.byte	0x4b
 8003983:	00          	.byte	0x00
 8003984:	23ac      	movs	r3, #172	@ 0xac
 8003986:	009b      	lsls	r3, r3, #2
 8003988:	58e3      	ldr	r3, [r4, r3]
 800398a:	7c20      	ldrb	r0, [r4, #16]
 800398c:	681b      	ldr	r3, [r3, #0]
 800398e:	466a      	mov	r2, sp
 8003990:	1d91      	adds	r1, r2, #6
 8003992:	4798      	blx	r3
 8003994:	466b      	mov	r3, sp
 8003996:	88d9      	ldrh	r1, [r3, #6]
 8003998:	88ea      	ldrh	r2, [r5, #6]
 800399a:	2900      	cmp	r1, #0
 800399c:	d050      	beq.n	8003a40 <USBD_StdDevReq+0x124>
 800399e:	2a00      	cmp	r2, #0
 80039a0:	d143      	bne.n	8003a2a <USBD_StdDevReq+0x10e>
 80039a2:	0020      	movs	r0, r4
 80039a4:	f000 fa13 	bl	8003dce <USBD_CtlSendStatus>
 80039a8:	e7dc      	b.n	8003964 <USBD_StdDevReq+0x48>
 80039aa:	23ad      	movs	r3, #173	@ 0xad
 80039ac:	7c22      	ldrb	r2, [r4, #16]
 80039ae:	009b      	lsls	r3, r3, #2
 80039b0:	58e3      	ldr	r3, [r4, r3]
 80039b2:	2a00      	cmp	r2, #0
 80039b4:	d106      	bne.n	80039c4 <USBD_StdDevReq+0xa8>
 80039b6:	6a9b      	ldr	r3, [r3, #40]	@ 0x28
 80039b8:	466a      	mov	r2, sp
 80039ba:	1d90      	adds	r0, r2, #6
 80039bc:	4798      	blx	r3
 80039be:	2302      	movs	r3, #2
 80039c0:	7043      	strb	r3, [r0, #1]
 80039c2:	e7e7      	b.n	8003994 <USBD_StdDevReq+0x78>
 80039c4:	6adb      	ldr	r3, [r3, #44]	@ 0x2c
 80039c6:	e7f7      	b.n	80039b8 <USBD_StdDevReq+0x9c>
 80039c8:	b2d8      	uxtb	r0, r3
 80039ca:	2805      	cmp	r0, #5
 80039cc:	d84b      	bhi.n	8003a66 <USBD_StdDevReq+0x14a>
 80039ce:	23ac      	movs	r3, #172	@ 0xac
 80039d0:	009b      	lsls	r3, r3, #2
 80039d2:	58e3      	ldr	r3, [r4, r3]
 80039d4:	f7fc fba0 	bl	8000118 <__gnu_thumb1_case_uqi>
 80039d8:	0c0a0803 	.word	0x0c0a0803
 80039dc:	100e      	.short	0x100e
 80039de:	685b      	ldr	r3, [r3, #4]
 80039e0:	2b00      	cmp	r3, #0
 80039e2:	d040      	beq.n	8003a66 <USBD_StdDevReq+0x14a>
 80039e4:	7c20      	ldrb	r0, [r4, #16]
 80039e6:	e7d2      	b.n	800398e <USBD_StdDevReq+0x72>
 80039e8:	689b      	ldr	r3, [r3, #8]
 80039ea:	e7f9      	b.n	80039e0 <USBD_StdDevReq+0xc4>
 80039ec:	68db      	ldr	r3, [r3, #12]
 80039ee:	e7f7      	b.n	80039e0 <USBD_StdDevReq+0xc4>
 80039f0:	691b      	ldr	r3, [r3, #16]
 80039f2:	e7f5      	b.n	80039e0 <USBD_StdDevReq+0xc4>
 80039f4:	695b      	ldr	r3, [r3, #20]
 80039f6:	e7f3      	b.n	80039e0 <USBD_StdDevReq+0xc4>
 80039f8:	699b      	ldr	r3, [r3, #24]
 80039fa:	e7f1      	b.n	80039e0 <USBD_StdDevReq+0xc4>
 80039fc:	7c23      	ldrb	r3, [r4, #16]
 80039fe:	2b00      	cmp	r3, #0
 8003a00:	d131      	bne.n	8003a66 <USBD_StdDevReq+0x14a>
 8003a02:	23ad      	movs	r3, #173	@ 0xad
 8003a04:	466a      	mov	r2, sp
 8003a06:	009b      	lsls	r3, r3, #2
 8003a08:	58e3      	ldr	r3, [r4, r3]
 8003a0a:	1d90      	adds	r0, r2, #6
 8003a0c:	6b5b      	ldr	r3, [r3, #52]	@ 0x34
 8003a0e:	4798      	blx	r3
 8003a10:	e7c0      	b.n	8003994 <USBD_StdDevReq+0x78>
 8003a12:	7c23      	ldrb	r3, [r4, #16]
 8003a14:	2b00      	cmp	r3, #0
 8003a16:	d126      	bne.n	8003a66 <USBD_StdDevReq+0x14a>
 8003a18:	23ad      	movs	r3, #173	@ 0xad
 8003a1a:	466a      	mov	r2, sp
 8003a1c:	009b      	lsls	r3, r3, #2
 8003a1e:	58e3      	ldr	r3, [r4, r3]
 8003a20:	1d90      	adds	r0, r2, #6
 8003a22:	6b1b      	ldr	r3, [r3, #48]	@ 0x30
 8003a24:	4798      	blx	r3
 8003a26:	2307      	movs	r3, #7
 8003a28:	e7ca      	b.n	80039c0 <USBD_StdDevReq+0xa4>
 8003a2a:	1c0b      	adds	r3, r1, #0
 8003a2c:	4291      	cmp	r1, r2
 8003a2e:	d900      	bls.n	8003a32 <USBD_StdDevReq+0x116>
 8003a30:	1c13      	adds	r3, r2, #0
 8003a32:	4669      	mov	r1, sp
 8003a34:	b29a      	uxth	r2, r3
 8003a36:	80cb      	strh	r3, [r1, #6]
 8003a38:	0001      	movs	r1, r0
 8003a3a:	0020      	movs	r0, r4
 8003a3c:	f000 f999 	bl	8003d72 <USBD_CtlSendData>
 8003a40:	88eb      	ldrh	r3, [r5, #6]
 8003a42:	2b00      	cmp	r3, #0
 8003a44:	d000      	beq.n	8003a48 <USBD_StdDevReq+0x12c>
 8003a46:	e78d      	b.n	8003964 <USBD_StdDevReq+0x48>
 8003a48:	e7ab      	b.n	80039a2 <USBD_StdDevReq+0x86>
 8003a4a:	88ab      	ldrh	r3, [r5, #4]
 8003a4c:	2b00      	cmp	r3, #0
 8003a4e:	d10a      	bne.n	8003a66 <USBD_StdDevReq+0x14a>
 8003a50:	88eb      	ldrh	r3, [r5, #6]
 8003a52:	2b00      	cmp	r3, #0
 8003a54:	d107      	bne.n	8003a66 <USBD_StdDevReq+0x14a>
 8003a56:	886e      	ldrh	r6, [r5, #2]
 8003a58:	2e7f      	cmp	r6, #127	@ 0x7f
 8003a5a:	d804      	bhi.n	8003a66 <USBD_StdDevReq+0x14a>
 8003a5c:	25a7      	movs	r5, #167	@ 0xa7
 8003a5e:	00ad      	lsls	r5, r5, #2
 8003a60:	5d63      	ldrb	r3, [r4, r5]
 8003a62:	2b03      	cmp	r3, #3
 8003a64:	d103      	bne.n	8003a6e <USBD_StdDevReq+0x152>
 8003a66:	0020      	movs	r0, r4
 8003a68:	f7ff ff4d 	bl	8003906 <USBD_CtlError.constprop.0>
 8003a6c:	e77a      	b.n	8003964 <USBD_StdDevReq+0x48>
 8003a6e:	4b44      	ldr	r3, [pc, #272]	@ (8003b80 <USBD_StdDevReq+0x264>)
 8003a70:	b2f1      	uxtb	r1, r6
 8003a72:	54e1      	strb	r1, [r4, r3]
 8003a74:	0020      	movs	r0, r4
 8003a76:	f000 fbac 	bl	80041d2 <USBD_LL_SetUSBAddress>
 8003a7a:	0020      	movs	r0, r4
 8003a7c:	f000 f9a7 	bl	8003dce <USBD_CtlSendStatus>
 8003a80:	2302      	movs	r3, #2
 8003a82:	2e00      	cmp	r6, #0
 8003a84:	d100      	bne.n	8003a88 <USBD_StdDevReq+0x16c>
 8003a86:	2301      	movs	r3, #1
 8003a88:	5563      	strb	r3, [r4, r5]
 8003a8a:	e76b      	b.n	8003964 <USBD_StdDevReq+0x48>
 8003a8c:	78a9      	ldrb	r1, [r5, #2]
 8003a8e:	4d3d      	ldr	r5, [pc, #244]	@ (8003b84 <USBD_StdDevReq+0x268>)
 8003a90:	7029      	strb	r1, [r5, #0]
 8003a92:	2901      	cmp	r1, #1
 8003a94:	d8e7      	bhi.n	8003a66 <USBD_StdDevReq+0x14a>
 8003a96:	23a7      	movs	r3, #167	@ 0xa7
 8003a98:	009b      	lsls	r3, r3, #2
 8003a9a:	5ce2      	ldrb	r2, [r4, r3]
 8003a9c:	2a02      	cmp	r2, #2
 8003a9e:	d009      	beq.n	8003ab4 <USBD_StdDevReq+0x198>
 8003aa0:	2a03      	cmp	r2, #3
 8003aa2:	d015      	beq.n	8003ad0 <USBD_StdDevReq+0x1b4>
 8003aa4:	0020      	movs	r0, r4
 8003aa6:	f7ff ff2e 	bl	8003906 <USBD_CtlError.constprop.0>
 8003aaa:	0020      	movs	r0, r4
 8003aac:	7829      	ldrb	r1, [r5, #0]
 8003aae:	f7ff fdf5 	bl	800369c <USBD_ClrClassConfig>
 8003ab2:	e757      	b.n	8003964 <USBD_StdDevReq+0x48>
 8003ab4:	2900      	cmp	r1, #0
 8003ab6:	d100      	bne.n	8003aba <USBD_StdDevReq+0x19e>
 8003ab8:	e773      	b.n	80039a2 <USBD_StdDevReq+0x86>
 8003aba:	2101      	movs	r1, #1
 8003abc:	2203      	movs	r2, #3
 8003abe:	6061      	str	r1, [r4, #4]
 8003ac0:	54e2      	strb	r2, [r4, r3]
 8003ac2:	0020      	movs	r0, r4
 8003ac4:	f7ff fddc 	bl	8003680 <USBD_SetClassConfig>
 8003ac8:	2802      	cmp	r0, #2
 8003aca:	d000      	beq.n	8003ace <USBD_StdDevReq+0x1b2>
 8003acc:	e769      	b.n	80039a2 <USBD_StdDevReq+0x86>
 8003ace:	e7ca      	b.n	8003a66 <USBD_StdDevReq+0x14a>
 8003ad0:	2900      	cmp	r1, #0
 8003ad2:	d106      	bne.n	8003ae2 <USBD_StdDevReq+0x1c6>
 8003ad4:	2202      	movs	r2, #2
 8003ad6:	0020      	movs	r0, r4
 8003ad8:	54e2      	strb	r2, [r4, r3]
 8003ada:	6061      	str	r1, [r4, #4]
 8003adc:	f7ff fdde 	bl	800369c <USBD_ClrClassConfig>
 8003ae0:	e75f      	b.n	80039a2 <USBD_StdDevReq+0x86>
 8003ae2:	6861      	ldr	r1, [r4, #4]
 8003ae4:	2901      	cmp	r1, #1
 8003ae6:	d100      	bne.n	8003aea <USBD_StdDevReq+0x1ce>
 8003ae8:	e75b      	b.n	80039a2 <USBD_StdDevReq+0x86>
 8003aea:	b2c9      	uxtb	r1, r1
 8003aec:	0020      	movs	r0, r4
 8003aee:	f7ff fdd5 	bl	800369c <USBD_ClrClassConfig>
 8003af2:	7829      	ldrb	r1, [r5, #0]
 8003af4:	6061      	str	r1, [r4, #4]
 8003af6:	e7e4      	b.n	8003ac2 <USBD_StdDevReq+0x1a6>
 8003af8:	88ea      	ldrh	r2, [r5, #6]
 8003afa:	2a01      	cmp	r2, #1
 8003afc:	d1b3      	bne.n	8003a66 <USBD_StdDevReq+0x14a>
 8003afe:	23a7      	movs	r3, #167	@ 0xa7
 8003b00:	009b      	lsls	r3, r3, #2
 8003b02:	5ce3      	ldrb	r3, [r4, r3]
 8003b04:	2b02      	cmp	r3, #2
 8003b06:	d806      	bhi.n	8003b16 <USBD_StdDevReq+0x1fa>
 8003b08:	2b00      	cmp	r3, #0
 8003b0a:	d0ac      	beq.n	8003a66 <USBD_StdDevReq+0x14a>
 8003b0c:	2300      	movs	r3, #0
 8003b0e:	0021      	movs	r1, r4
 8003b10:	60a3      	str	r3, [r4, #8]
 8003b12:	3108      	adds	r1, #8
 8003b14:	e002      	b.n	8003b1c <USBD_StdDevReq+0x200>
 8003b16:	1d21      	adds	r1, r4, #4
 8003b18:	2b03      	cmp	r3, #3
 8003b1a:	d1a4      	bne.n	8003a66 <USBD_StdDevReq+0x14a>
 8003b1c:	0020      	movs	r0, r4
 8003b1e:	f000 f928 	bl	8003d72 <USBD_CtlSendData>
 8003b22:	e71f      	b.n	8003964 <USBD_StdDevReq+0x48>
 8003b24:	23a7      	movs	r3, #167	@ 0xa7
 8003b26:	009b      	lsls	r3, r3, #2
 8003b28:	5ce3      	ldrb	r3, [r4, r3]
 8003b2a:	3b01      	subs	r3, #1
 8003b2c:	2b02      	cmp	r3, #2
 8003b2e:	d89a      	bhi.n	8003a66 <USBD_StdDevReq+0x14a>
 8003b30:	88eb      	ldrh	r3, [r5, #6]
 8003b32:	2b02      	cmp	r3, #2
 8003b34:	d197      	bne.n	8003a66 <USBD_StdDevReq+0x14a>
 8003b36:	23a9      	movs	r3, #169	@ 0xa9
 8003b38:	009b      	lsls	r3, r3, #2
 8003b3a:	58e2      	ldr	r2, [r4, r3]
 8003b3c:	2301      	movs	r3, #1
 8003b3e:	2a00      	cmp	r2, #0
 8003b40:	d000      	beq.n	8003b44 <USBD_StdDevReq+0x228>
 8003b42:	3302      	adds	r3, #2
 8003b44:	0021      	movs	r1, r4
 8003b46:	2202      	movs	r2, #2
 8003b48:	60e3      	str	r3, [r4, #12]
 8003b4a:	310c      	adds	r1, #12
 8003b4c:	e7e6      	b.n	8003b1c <USBD_StdDevReq+0x200>
 8003b4e:	886b      	ldrh	r3, [r5, #2]
 8003b50:	2b01      	cmp	r3, #1
 8003b52:	d000      	beq.n	8003b56 <USBD_StdDevReq+0x23a>
 8003b54:	e706      	b.n	8003964 <USBD_StdDevReq+0x48>
 8003b56:	22a9      	movs	r2, #169	@ 0xa9
 8003b58:	0092      	lsls	r2, r2, #2
 8003b5a:	50a3      	str	r3, [r4, r2]
 8003b5c:	e721      	b.n	80039a2 <USBD_StdDevReq+0x86>
 8003b5e:	23a7      	movs	r3, #167	@ 0xa7
 8003b60:	009b      	lsls	r3, r3, #2
 8003b62:	5ce3      	ldrb	r3, [r4, r3]
 8003b64:	3b01      	subs	r3, #1
 8003b66:	2b02      	cmp	r3, #2
 8003b68:	d900      	bls.n	8003b6c <USBD_StdDevReq+0x250>
 8003b6a:	e77c      	b.n	8003a66 <USBD_StdDevReq+0x14a>
 8003b6c:	886b      	ldrh	r3, [r5, #2]
 8003b6e:	2b01      	cmp	r3, #1
 8003b70:	d000      	beq.n	8003b74 <USBD_StdDevReq+0x258>
 8003b72:	e6f7      	b.n	8003964 <USBD_StdDevReq+0x48>
 8003b74:	23a9      	movs	r3, #169	@ 0xa9
 8003b76:	2200      	movs	r2, #0
 8003b78:	009b      	lsls	r3, r3, #2
 8003b7a:	50e2      	str	r2, [r4, r3]
 8003b7c:	e711      	b.n	80039a2 <USBD_StdDevReq+0x86>
 8003b7e:	46c0      	nop			@ (mov r8, r8)
 8003b80:	0000029e 	.word	0x0000029e
 8003b84:	20000720 	.word	0x20000720

08003b88 <USBD_StdItfReq>:
 8003b88:	2360      	movs	r3, #96	@ 0x60
 8003b8a:	780a      	ldrb	r2, [r1, #0]
 8003b8c:	b570      	push	{r4, r5, r6, lr}
 8003b8e:	4013      	ands	r3, r2
 8003b90:	0004      	movs	r4, r0
 8003b92:	000d      	movs	r5, r1
 8003b94:	0652      	lsls	r2, r2, #25
 8003b96:	d501      	bpl.n	8003b9c <USBD_StdItfReq+0x14>
 8003b98:	2b40      	cmp	r3, #64	@ 0x40
 8003b9a:	d119      	bne.n	8003bd0 <USBD_StdItfReq+0x48>
 8003b9c:	23a7      	movs	r3, #167	@ 0xa7
 8003b9e:	009b      	lsls	r3, r3, #2
 8003ba0:	5ce3      	ldrb	r3, [r4, r3]
 8003ba2:	3b01      	subs	r3, #1
 8003ba4:	2b02      	cmp	r3, #2
 8003ba6:	d813      	bhi.n	8003bd0 <USBD_StdItfReq+0x48>
 8003ba8:	792b      	ldrb	r3, [r5, #4]
 8003baa:	2b01      	cmp	r3, #1
 8003bac:	d810      	bhi.n	8003bd0 <USBD_StdItfReq+0x48>
 8003bae:	23ad      	movs	r3, #173	@ 0xad
 8003bb0:	009b      	lsls	r3, r3, #2
 8003bb2:	58e3      	ldr	r3, [r4, r3]
 8003bb4:	0029      	movs	r1, r5
 8003bb6:	689b      	ldr	r3, [r3, #8]
 8003bb8:	0020      	movs	r0, r4
 8003bba:	4798      	blx	r3
 8003bbc:	88eb      	ldrh	r3, [r5, #6]
 8003bbe:	2b00      	cmp	r3, #0
 8003bc0:	d104      	bne.n	8003bcc <USBD_StdItfReq+0x44>
 8003bc2:	2800      	cmp	r0, #0
 8003bc4:	d102      	bne.n	8003bcc <USBD_StdItfReq+0x44>
 8003bc6:	0020      	movs	r0, r4
 8003bc8:	f000 f901 	bl	8003dce <USBD_CtlSendStatus>
 8003bcc:	2000      	movs	r0, #0
 8003bce:	bd70      	pop	{r4, r5, r6, pc}
 8003bd0:	0020      	movs	r0, r4
 8003bd2:	f7ff fe98 	bl	8003906 <USBD_CtlError.constprop.0>
 8003bd6:	e7f9      	b.n	8003bcc <USBD_StdItfReq+0x44>

08003bd8 <USBD_StdEPReq>:
 8003bd8:	b570      	push	{r4, r5, r6, lr}
 8003bda:	780a      	ldrb	r2, [r1, #0]
 8003bdc:	0004      	movs	r4, r0
 8003bde:	000b      	movs	r3, r1
 8003be0:	8888      	ldrh	r0, [r1, #4]
 8003be2:	2160      	movs	r1, #96	@ 0x60
 8003be4:	400a      	ands	r2, r1
 8003be6:	0015      	movs	r5, r2
 8003be8:	1849      	adds	r1, r1, r1
 8003bea:	3d20      	subs	r5, #32
 8003bec:	420d      	tst	r5, r1
 8003bee:	d026      	beq.n	8003c3e <USBD_StdEPReq+0x66>
 8003bf0:	2a00      	cmp	r2, #0
 8003bf2:	d134      	bne.n	8003c5e <USBD_StdEPReq+0x86>
 8003bf4:	785a      	ldrb	r2, [r3, #1]
 8003bf6:	b2c1      	uxtb	r1, r0
 8003bf8:	2a01      	cmp	r2, #1
 8003bfa:	d043      	beq.n	8003c84 <USBD_StdEPReq+0xac>
 8003bfc:	2a03      	cmp	r2, #3
 8003bfe:	d027      	beq.n	8003c50 <USBD_StdEPReq+0x78>
 8003c00:	2a00      	cmp	r2, #0
 8003c02:	d12c      	bne.n	8003c5e <USBD_StdEPReq+0x86>
 8003c04:	23a7      	movs	r3, #167	@ 0xa7
 8003c06:	009b      	lsls	r3, r3, #2
 8003c08:	5ce3      	ldrb	r3, [r4, r3]
 8003c0a:	2b02      	cmp	r3, #2
 8003c0c:	d054      	beq.n	8003cb8 <USBD_StdEPReq+0xe0>
 8003c0e:	2b03      	cmp	r3, #3
 8003c10:	d125      	bne.n	8003c5e <USBD_StdEPReq+0x86>
 8003c12:	230f      	movs	r3, #15
 8003c14:	2214      	movs	r2, #20
 8003c16:	400b      	ands	r3, r1
 8003c18:	4353      	muls	r3, r2
 8003c1a:	18e3      	adds	r3, r4, r3
 8003c1c:	0600      	lsls	r0, r0, #24
 8003c1e:	d55b      	bpl.n	8003cd8 <USBD_StdEPReq+0x100>
 8003c20:	699b      	ldr	r3, [r3, #24]
 8003c22:	2b00      	cmp	r3, #0
 8003c24:	d01b      	beq.n	8003c5e <USBD_StdEPReq+0x86>
 8003c26:	237f      	movs	r3, #127	@ 0x7f
 8003c28:	400b      	ands	r3, r1
 8003c2a:	3301      	adds	r3, #1
 8003c2c:	4353      	muls	r3, r2
 8003c2e:	18e5      	adds	r5, r4, r3
 8003c30:	064b      	lsls	r3, r1, #25
 8003c32:	d15c      	bne.n	8003cee <USBD_StdEPReq+0x116>
 8003c34:	2300      	movs	r3, #0
 8003c36:	2202      	movs	r2, #2
 8003c38:	0029      	movs	r1, r5
 8003c3a:	602b      	str	r3, [r5, #0]
 8003c3c:	e048      	b.n	8003cd0 <USBD_StdEPReq+0xf8>
 8003c3e:	22ad      	movs	r2, #173	@ 0xad
 8003c40:	0092      	lsls	r2, r2, #2
 8003c42:	58a2      	ldr	r2, [r4, r2]
 8003c44:	0019      	movs	r1, r3
 8003c46:	0020      	movs	r0, r4
 8003c48:	6892      	ldr	r2, [r2, #8]
 8003c4a:	4790      	blx	r2
 8003c4c:	2000      	movs	r0, #0
 8003c4e:	bd70      	pop	{r4, r5, r6, pc}
 8003c50:	22a7      	movs	r2, #167	@ 0xa7
 8003c52:	0092      	lsls	r2, r2, #2
 8003c54:	5ca2      	ldrb	r2, [r4, r2]
 8003c56:	2a02      	cmp	r2, #2
 8003c58:	d024      	beq.n	8003ca4 <USBD_StdEPReq+0xcc>
 8003c5a:	2a03      	cmp	r2, #3
 8003c5c:	d003      	beq.n	8003c66 <USBD_StdEPReq+0x8e>
 8003c5e:	0020      	movs	r0, r4
 8003c60:	f7ff fe51 	bl	8003906 <USBD_CtlError.constprop.0>
 8003c64:	e7f2      	b.n	8003c4c <USBD_StdEPReq+0x74>
 8003c66:	885a      	ldrh	r2, [r3, #2]
 8003c68:	2a00      	cmp	r2, #0
 8003c6a:	d107      	bne.n	8003c7c <USBD_StdEPReq+0xa4>
 8003c6c:	064a      	lsls	r2, r1, #25
 8003c6e:	d005      	beq.n	8003c7c <USBD_StdEPReq+0xa4>
 8003c70:	88db      	ldrh	r3, [r3, #6]
 8003c72:	2b00      	cmp	r3, #0
 8003c74:	d102      	bne.n	8003c7c <USBD_StdEPReq+0xa4>
 8003c76:	0020      	movs	r0, r4
 8003c78:	f000 fa86 	bl	8004188 <USBD_LL_StallEP>
 8003c7c:	0020      	movs	r0, r4
 8003c7e:	f000 f8a6 	bl	8003dce <USBD_CtlSendStatus>
 8003c82:	e7e3      	b.n	8003c4c <USBD_StdEPReq+0x74>
 8003c84:	22a7      	movs	r2, #167	@ 0xa7
 8003c86:	0092      	lsls	r2, r2, #2
 8003c88:	5ca2      	ldrb	r2, [r4, r2]
 8003c8a:	2a02      	cmp	r2, #2
 8003c8c:	d00a      	beq.n	8003ca4 <USBD_StdEPReq+0xcc>
 8003c8e:	2a03      	cmp	r2, #3
 8003c90:	d1e5      	bne.n	8003c5e <USBD_StdEPReq+0x86>
 8003c92:	885b      	ldrh	r3, [r3, #2]
 8003c94:	2b00      	cmp	r3, #0
 8003c96:	d1d9      	bne.n	8003c4c <USBD_StdEPReq+0x74>
 8003c98:	064b      	lsls	r3, r1, #25
 8003c9a:	d0ef      	beq.n	8003c7c <USBD_StdEPReq+0xa4>
 8003c9c:	0020      	movs	r0, r4
 8003c9e:	f000 fa7c 	bl	800419a <USBD_LL_ClearStallEP>
 8003ca2:	e7eb      	b.n	8003c7c <USBD_StdEPReq+0xa4>
 8003ca4:	064b      	lsls	r3, r1, #25
 8003ca6:	d0da      	beq.n	8003c5e <USBD_StdEPReq+0x86>
 8003ca8:	0020      	movs	r0, r4
 8003caa:	f000 fa6d 	bl	8004188 <USBD_LL_StallEP>
 8003cae:	2180      	movs	r1, #128	@ 0x80
 8003cb0:	0020      	movs	r0, r4
 8003cb2:	f000 fa69 	bl	8004188 <USBD_LL_StallEP>
 8003cb6:	e7c9      	b.n	8003c4c <USBD_StdEPReq+0x74>
 8003cb8:	0649      	lsls	r1, r1, #25
 8003cba:	d1d0      	bne.n	8003c5e <USBD_StdEPReq+0x86>
 8003cbc:	0021      	movs	r1, r4
 8003cbe:	3155      	adds	r1, #85	@ 0x55
 8003cc0:	31ff      	adds	r1, #255	@ 0xff
 8003cc2:	0600      	lsls	r0, r0, #24
 8003cc4:	d501      	bpl.n	8003cca <USBD_StdEPReq+0xf2>
 8003cc6:	3941      	subs	r1, #65	@ 0x41
 8003cc8:	39ff      	subs	r1, #255	@ 0xff
 8003cca:	2300      	movs	r3, #0
 8003ccc:	2202      	movs	r2, #2
 8003cce:	600b      	str	r3, [r1, #0]
 8003cd0:	0020      	movs	r0, r4
 8003cd2:	f000 f84e 	bl	8003d72 <USBD_CtlSendData>
 8003cd6:	e7b9      	b.n	8003c4c <USBD_StdEPReq+0x74>
 8003cd8:	33fc      	adds	r3, #252	@ 0xfc
 8003cda:	6ddb      	ldr	r3, [r3, #92]	@ 0x5c
 8003cdc:	2b00      	cmp	r3, #0
 8003cde:	d0be      	beq.n	8003c5e <USBD_StdEPReq+0x86>
 8003ce0:	237f      	movs	r3, #127	@ 0x7f
 8003ce2:	400b      	ands	r3, r1
 8003ce4:	435a      	muls	r2, r3
 8003ce6:	3255      	adds	r2, #85	@ 0x55
 8003ce8:	32ff      	adds	r2, #255	@ 0xff
 8003cea:	18a5      	adds	r5, r4, r2
 8003cec:	e7a0      	b.n	8003c30 <USBD_StdEPReq+0x58>
 8003cee:	0020      	movs	r0, r4
 8003cf0:	f000 fa5c 	bl	80041ac <USBD_LL_IsStallEP>
 8003cf4:	2800      	cmp	r0, #0
 8003cf6:	d09d      	beq.n	8003c34 <USBD_StdEPReq+0x5c>
 8003cf8:	2301      	movs	r3, #1
 8003cfa:	e79c      	b.n	8003c36 <USBD_StdEPReq+0x5e>

08003cfc <USBD_ParseSetupRequest>:
 8003cfc:	780b      	ldrb	r3, [r1, #0]
 8003cfe:	7003      	strb	r3, [r0, #0]
 8003d00:	784b      	ldrb	r3, [r1, #1]
 8003d02:	7043      	strb	r3, [r0, #1]
 8003d04:	78cb      	ldrb	r3, [r1, #3]
 8003d06:	788a      	ldrb	r2, [r1, #2]
 8003d08:	021b      	lsls	r3, r3, #8
 8003d0a:	4313      	orrs	r3, r2
 8003d0c:	8043      	strh	r3, [r0, #2]
 8003d0e:	794b      	ldrb	r3, [r1, #5]
 8003d10:	790a      	ldrb	r2, [r1, #4]
 8003d12:	021b      	lsls	r3, r3, #8
 8003d14:	4313      	orrs	r3, r2
 8003d16:	8083      	strh	r3, [r0, #4]
 8003d18:	79cb      	ldrb	r3, [r1, #7]
 8003d1a:	798a      	ldrb	r2, [r1, #6]
 8003d1c:	021b      	lsls	r3, r3, #8
 8003d1e:	4313      	orrs	r3, r2
 8003d20:	80c3      	strh	r3, [r0, #6]
 8003d22:	4770      	bx	lr

08003d24 <USBD_CtlError>:
 8003d24:	b510      	push	{r4, lr}
 8003d26:	0004      	movs	r4, r0
 8003d28:	2180      	movs	r1, #128	@ 0x80
 8003d2a:	f000 fa2d 	bl	8004188 <USBD_LL_StallEP>
 8003d2e:	2100      	movs	r1, #0
 8003d30:	0020      	movs	r0, r4
 8003d32:	f000 fa29 	bl	8004188 <USBD_LL_StallEP>
 8003d36:	bd10      	pop	{r4, pc}

08003d38 <USBD_GetString>:
 8003d38:	b570      	push	{r4, r5, r6, lr}
 8003d3a:	0004      	movs	r4, r0
 8003d3c:	000d      	movs	r5, r1
 8003d3e:	0016      	movs	r6, r2
 8003d40:	2800      	cmp	r0, #0
 8003d42:	d00d      	beq.n	8003d60 <USBD_GetString+0x28>
 8003d44:	f7fc f9e0 	bl	8000108 <strlen>
 8003d48:	b2c3      	uxtb	r3, r0
 8003d4a:	3301      	adds	r3, #1
 8003d4c:	005b      	lsls	r3, r3, #1
 8003d4e:	8033      	strh	r3, [r6, #0]
 8003d50:	702b      	strb	r3, [r5, #0]
 8003d52:	2303      	movs	r3, #3
 8003d54:	2000      	movs	r0, #0
 8003d56:	706b      	strb	r3, [r5, #1]
 8003d58:	3b01      	subs	r3, #1
 8003d5a:	7821      	ldrb	r1, [r4, #0]
 8003d5c:	2900      	cmp	r1, #0
 8003d5e:	d100      	bne.n	8003d62 <USBD_GetString+0x2a>
 8003d60:	bd70      	pop	{r4, r5, r6, pc}
 8003d62:	1c5a      	adds	r2, r3, #1
 8003d64:	54e9      	strb	r1, [r5, r3]
 8003d66:	b2d2      	uxtb	r2, r2
 8003d68:	3302      	adds	r3, #2
 8003d6a:	3401      	adds	r4, #1
 8003d6c:	b2db      	uxtb	r3, r3
 8003d6e:	54a8      	strb	r0, [r5, r2]
 8003d70:	e7f3      	b.n	8003d5a <USBD_GetString+0x22>

08003d72 <USBD_CtlSendData>:
 8003d72:	0013      	movs	r3, r2
 8003d74:	22a5      	movs	r2, #165	@ 0xa5
 8003d76:	b510      	push	{r4, lr}
 8003d78:	2402      	movs	r4, #2
 8003d7a:	0092      	lsls	r2, r2, #2
 8003d7c:	5084      	str	r4, [r0, r2]
 8003d7e:	000a      	movs	r2, r1
 8003d80:	61c3      	str	r3, [r0, #28]
 8003d82:	2100      	movs	r1, #0
 8003d84:	6203      	str	r3, [r0, #32]
 8003d86:	f000 fa2d 	bl	80041e4 <USBD_LL_Transmit>
 8003d8a:	2000      	movs	r0, #0
 8003d8c:	bd10      	pop	{r4, pc}

08003d8e <USBD_CtlContinueSendData>:
 8003d8e:	b510      	push	{r4, lr}
 8003d90:	0013      	movs	r3, r2
 8003d92:	000a      	movs	r2, r1
 8003d94:	2100      	movs	r1, #0
 8003d96:	f000 fa25 	bl	80041e4 <USBD_LL_Transmit>
 8003d9a:	2000      	movs	r0, #0
 8003d9c:	bd10      	pop	{r4, pc}

08003d9e <USBD_CtlPrepareRx>:
 8003d9e:	0013      	movs	r3, r2
 8003da0:	22a5      	movs	r2, #165	@ 0xa5
 8003da2:	b510      	push	{r4, lr}
 8003da4:	2403      	movs	r4, #3
 8003da6:	0092      	lsls	r2, r2, #2
 8003da8:	5084      	str	r4, [r0, r2]
 8003daa:	0002      	movs	r2, r0
 8003dac:	32fc      	adds	r2, #252	@ 0xfc
 8003dae:	6613      	str	r3, [r2, #96]	@ 0x60
 8003db0:	6653      	str	r3, [r2, #100]	@ 0x64
 8003db2:	000a      	movs	r2, r1
 8003db4:	2100      	movs	r1, #0
 8003db6:	f000 fa1e 	bl	80041f6 <USBD_LL_PrepareReceive>
 8003dba:	2000      	movs	r0, #0
 8003dbc:	bd10      	pop	{r4, pc}

08003dbe <USBD_CtlContinueRx>:
 8003dbe:	b510      	push	{r4, lr}
 8003dc0:	0013      	movs	r3, r2
 8003dc2:	000a      	movs	r2, r1
 8003dc4:	2100      	movs	r1, #0
 8003dc6:	f000 fa16 	bl	80041f6 <USBD_LL_PrepareReceive>
 8003dca:	2000      	movs	r0, #0
 8003dcc:	bd10      	pop	{r4, pc}

08003dce <USBD_CtlSendStatus>:
 8003dce:	23a5      	movs	r3, #165	@ 0xa5
 8003dd0:	2204      	movs	r2, #4
 8003dd2:	009b      	lsls	r3, r3, #2
 8003dd4:	b510      	push	{r4, lr}
 8003dd6:	50c2      	str	r2, [r0, r3]
 8003dd8:	2300      	movs	r3, #0
 8003dda:	001a      	movs	r2, r3
 8003ddc:	0019      	movs	r1, r3
 8003dde:	f000 fa01 	bl	80041e4 <USBD_LL_Transmit>
 8003de2:	2000      	movs	r0, #0
 8003de4:	bd10      	pop	{r4, pc}

08003de6 <USBD_CtlReceiveStatus>:
 8003de6:	23a5      	movs	r3, #165	@ 0xa5
 8003de8:	2205      	movs	r2, #5
 8003dea:	009b      	lsls	r3, r3, #2
 8003dec:	b510      	push	{r4, lr}
 8003dee:	50c2      	str	r2, [r0, r3]
 8003df0:	2300      	movs	r3, #0
 8003df2:	001a      	movs	r2, r3
 8003df4:	0019      	movs	r1, r3
 8003df6:	f000 f9fe 	bl	80041f6 <USBD_LL_PrepareReceive>
 8003dfa:	2000      	movs	r0, #0
 8003dfc:	bd10      	pop	{r4, pc}
	...

08003e00 <MX_USB_DEVICE_Init>:
 8003e00:	b510      	push	{r4, lr}
 8003e02:	4c11      	ldr	r4, [pc, #68]	@ (8003e48 <MX_USB_DEVICE_Init+0x48>)
 8003e04:	2200      	movs	r2, #0
 8003e06:	0020      	movs	r0, r4
 8003e08:	4910      	ldr	r1, [pc, #64]	@ (8003e4c <MX_USB_DEVICE_Init+0x4c>)
 8003e0a:	f7ff fc11 	bl	8003630 <USBD_Init>
 8003e0e:	2800      	cmp	r0, #0
 8003e10:	d001      	beq.n	8003e16 <MX_USB_DEVICE_Init+0x16>
 8003e12:	f7fc fb83 	bl	800051c <Error_Handler>
 8003e16:	0020      	movs	r0, r4
 8003e18:	490d      	ldr	r1, [pc, #52]	@ (8003e50 <MX_USB_DEVICE_Init+0x50>)
 8003e1a:	f7ff fc23 	bl	8003664 <USBD_RegisterClass>
 8003e1e:	2800      	cmp	r0, #0
 8003e20:	d001      	beq.n	8003e26 <MX_USB_DEVICE_Init+0x26>
 8003e22:	f7fc fb7b 	bl	800051c <Error_Handler>
 8003e26:	0020      	movs	r0, r4
 8003e28:	490a      	ldr	r1, [pc, #40]	@ (8003e54 <MX_USB_DEVICE_Init+0x54>)
 8003e2a:	f7ff fbb3 	bl	8003594 <USBD_CDC_RegisterInterface>
 8003e2e:	2800      	cmp	r0, #0
 8003e30:	d001      	beq.n	8003e36 <MX_USB_DEVICE_Init+0x36>
 8003e32:	f7fc fb73 	bl	800051c <Error_Handler>
 8003e36:	0020      	movs	r0, r4
 8003e38:	f7ff fc1d 	bl	8003676 <USBD_Start>
 8003e3c:	2800      	cmp	r0, #0
 8003e3e:	d001      	beq.n	8003e44 <MX_USB_DEVICE_Init+0x44>
 8003e40:	f7fc fb6c 	bl	800051c <Error_Handler>
 8003e44:	bd10      	pop	{r4, pc}
 8003e46:	46c0      	nop			@ (mov r8, r8)
 8003e48:	20000724 	.word	0x20000724
 8003e4c:	200001a0 	.word	0x200001a0
 8003e50:	20000118 	.word	0x20000118
 8003e54:	2000015c 	.word	0x2000015c

08003e58 <CDC_DeInit_FS>:
 8003e58:	2000      	movs	r0, #0
 8003e5a:	4770      	bx	lr

08003e5c <CDC_Control_FS>:
 8003e5c:	2000      	movs	r0, #0
 8003e5e:	4770      	bx	lr

08003e60 <CDC_Receive_FS>:
 8003e60:	b510      	push	{r4, lr}
 8003e62:	4c05      	ldr	r4, [pc, #20]	@ (8003e78 <CDC_Receive_FS+0x18>)
 8003e64:	0001      	movs	r1, r0
 8003e66:	0020      	movs	r0, r4
 8003e68:	f7ff fba8 	bl	80035bc <USBD_CDC_SetRxBuffer>
 8003e6c:	0020      	movs	r0, r4
 8003e6e:	f7ff fbc8 	bl	8003602 <USBD_CDC_ReceivePacket>
 8003e72:	2000      	movs	r0, #0
 8003e74:	bd10      	pop	{r4, pc}
 8003e76:	46c0      	nop			@ (mov r8, r8)
 8003e78:	20000724 	.word	0x20000724

08003e7c <CDC_Init_FS>:
 8003e7c:	b510      	push	{r4, lr}
 8003e7e:	4c06      	ldr	r4, [pc, #24]	@ (8003e98 <CDC_Init_FS+0x1c>)
 8003e80:	2200      	movs	r2, #0
 8003e82:	0020      	movs	r0, r4
 8003e84:	4905      	ldr	r1, [pc, #20]	@ (8003e9c <CDC_Init_FS+0x20>)
 8003e86:	f7ff fb8e 	bl	80035a6 <USBD_CDC_SetTxBuffer>
 8003e8a:	0020      	movs	r0, r4
 8003e8c:	4904      	ldr	r1, [pc, #16]	@ (8003ea0 <CDC_Init_FS+0x24>)
 8003e8e:	f7ff fb95 	bl	80035bc <USBD_CDC_SetRxBuffer>
 8003e92:	2000      	movs	r0, #0
 8003e94:	bd10      	pop	{r4, pc}
 8003e96:	46c0      	nop			@ (mov r8, r8)
 8003e98:	20000724 	.word	0x20000724
 8003e9c:	200009e8 	.word	0x200009e8
 8003ea0:	20000a28 	.word	0x20000a28

08003ea4 <CDC_Transmit_FS>:
 8003ea4:	000a      	movs	r2, r1
 8003ea6:	21ae      	movs	r1, #174	@ 0xae
 8003ea8:	b510      	push	{r4, lr}
 8003eaa:	4c08      	ldr	r4, [pc, #32]	@ (8003ecc <CDC_Transmit_FS+0x28>)
 8003eac:	0089      	lsls	r1, r1, #2
 8003eae:	0003      	movs	r3, r0
 8003eb0:	5860      	ldr	r0, [r4, r1]
 8003eb2:	39a4      	subs	r1, #164	@ 0xa4
 8003eb4:	5841      	ldr	r1, [r0, r1]
 8003eb6:	2001      	movs	r0, #1
 8003eb8:	2900      	cmp	r1, #0
 8003eba:	d106      	bne.n	8003eca <CDC_Transmit_FS+0x26>
 8003ebc:	0019      	movs	r1, r3
 8003ebe:	0020      	movs	r0, r4
 8003ec0:	f7ff fb71 	bl	80035a6 <USBD_CDC_SetTxBuffer>
 8003ec4:	0020      	movs	r0, r4
 8003ec6:	f7ff fb80 	bl	80035ca <USBD_CDC_TransmitPacket>
 8003eca:	bd10      	pop	{r4, pc}
 8003ecc:	20000724 	.word	0x20000724

08003ed0 <USBD_FS_DeviceDescriptor>:
 8003ed0:	2312      	movs	r3, #18
 8003ed2:	4801      	ldr	r0, [pc, #4]	@ (8003ed8 <USBD_FS_DeviceDescriptor+0x8>)
 8003ed4:	800b      	strh	r3, [r1, #0]
 8003ed6:	4770      	bx	lr
 8003ed8:	2000018c 	.word	0x2000018c

08003edc <USBD_FS_LangIDStrDescriptor>:
 8003edc:	2304      	movs	r3, #4
 8003ede:	4801      	ldr	r0, [pc, #4]	@ (8003ee4 <USBD_FS_LangIDStrDescriptor+0x8>)
 8003ee0:	800b      	strh	r3, [r1, #0]
 8003ee2:	4770      	bx	lr
 8003ee4:	20000188 	.word	0x20000188

08003ee8 <IntToUnicode>:
 8003ee8:	b570      	push	{r4, r5, r6, lr}
 8003eea:	2600      	movs	r6, #0
 8003eec:	0052      	lsls	r2, r2, #1
 8003eee:	188a      	adds	r2, r1, r2
 8003ef0:	428a      	cmp	r2, r1
 8003ef2:	d100      	bne.n	8003ef6 <IntToUnicode+0xe>
 8003ef4:	bd70      	pop	{r4, r5, r6, pc}
 8003ef6:	0f05      	lsrs	r5, r0, #28
 8003ef8:	b2ec      	uxtb	r4, r5
 8003efa:	0023      	movs	r3, r4
 8003efc:	3337      	adds	r3, #55	@ 0x37
 8003efe:	2d09      	cmp	r5, #9
 8003f00:	d800      	bhi.n	8003f04 <IntToUnicode+0x1c>
 8003f02:	3b07      	subs	r3, #7
 8003f04:	700b      	strb	r3, [r1, #0]
 8003f06:	704e      	strb	r6, [r1, #1]
 8003f08:	0100      	lsls	r0, r0, #4
 8003f0a:	3102      	adds	r1, #2
 8003f0c:	e7f0      	b.n	8003ef0 <IntToUnicode+0x8>
	...

08003f10 <USBD_FS_SerialStrDescriptor>:
 8003f10:	231a      	movs	r3, #26
 8003f12:	b510      	push	{r4, lr}
 8003f14:	800b      	strh	r3, [r1, #0]
 8003f16:	4b0a      	ldr	r3, [pc, #40]	@ (8003f40 <USBD_FS_SerialStrDescriptor+0x30>)
 8003f18:	6818      	ldr	r0, [r3, #0]
 8003f1a:	4b0a      	ldr	r3, [pc, #40]	@ (8003f44 <USBD_FS_SerialStrDescriptor+0x34>)
 8003f1c:	681b      	ldr	r3, [r3, #0]
 8003f1e:	18c0      	adds	r0, r0, r3
 8003f20:	2800      	cmp	r0, #0
 8003f22:	d00a      	beq.n	8003f3a <USBD_FS_SerialStrDescriptor+0x2a>
 8003f24:	4b08      	ldr	r3, [pc, #32]	@ (8003f48 <USBD_FS_SerialStrDescriptor+0x38>)
 8003f26:	2208      	movs	r2, #8
 8003f28:	681c      	ldr	r4, [r3, #0]
 8003f2a:	4908      	ldr	r1, [pc, #32]	@ (8003f4c <USBD_FS_SerialStrDescriptor+0x3c>)
 8003f2c:	f7ff ffdc 	bl	8003ee8 <IntToUnicode>
 8003f30:	2204      	movs	r2, #4
 8003f32:	0020      	movs	r0, r4
 8003f34:	4906      	ldr	r1, [pc, #24]	@ (8003f50 <USBD_FS_SerialStrDescriptor+0x40>)
 8003f36:	f7ff ffd7 	bl	8003ee8 <IntToUnicode>
 8003f3a:	4806      	ldr	r0, [pc, #24]	@ (8003f54 <USBD_FS_SerialStrDescriptor+0x44>)
 8003f3c:	bd10      	pop	{r4, pc}
 8003f3e:	46c0      	nop			@ (mov r8, r8)
 8003f40:	1ffff7ac 	.word	0x1ffff7ac
 8003f44:	1ffff7b4 	.word	0x1ffff7b4
 8003f48:	1ffff7b0 	.word	0x1ffff7b0
 8003f4c:	2000016e 	.word	0x2000016e
 8003f50:	2000017e 	.word	0x2000017e
 8003f54:	2000016c 	.word	0x2000016c

08003f58 <USBD_FS_ManufacturerStrDescriptor>:
 8003f58:	b510      	push	{r4, lr}
 8003f5a:	4c04      	ldr	r4, [pc, #16]	@ (8003f6c <USBD_FS_ManufacturerStrDescriptor+0x14>)
 8003f5c:	000a      	movs	r2, r1
 8003f5e:	0021      	movs	r1, r4
 8003f60:	4803      	ldr	r0, [pc, #12]	@ (8003f70 <USBD_FS_ManufacturerStrDescriptor+0x18>)
 8003f62:	f7ff fee9 	bl	8003d38 <USBD_GetString>
 8003f66:	0020      	movs	r0, r4
 8003f68:	bd10      	pop	{r4, pc}
 8003f6a:	46c0      	nop			@ (mov r8, r8)
 8003f6c:	20000a68 	.word	0x20000a68
 8003f70:	0800442c 	.word	0x0800442c

08003f74 <USBD_FS_ProductStrDescriptor>:
 8003f74:	b510      	push	{r4, lr}
 8003f76:	4c04      	ldr	r4, [pc, #16]	@ (8003f88 <USBD_FS_ProductStrDescriptor+0x14>)
 8003f78:	000a      	movs	r2, r1
 8003f7a:	0021      	movs	r1, r4
 8003f7c:	4803      	ldr	r0, [pc, #12]	@ (8003f8c <USBD_FS_ProductStrDescriptor+0x18>)
 8003f7e:	f7ff fedb 	bl	8003d38 <USBD_GetString>
 8003f82:	0020      	movs	r0, r4
 8003f84:	bd10      	pop	{r4, pc}
 8003f86:	46c0      	nop			@ (mov r8, r8)
 8003f88:	20000a68 	.word	0x20000a68
 8003f8c:	0800443f 	.word	0x0800443f

08003f90 <USBD_FS_ConfigStrDescriptor>:
 8003f90:	b510      	push	{r4, lr}
 8003f92:	4c04      	ldr	r4, [pc, #16]	@ (8003fa4 <USBD_FS_ConfigStrDescriptor+0x14>)
 8003f94:	000a      	movs	r2, r1
 8003f96:	0021      	movs	r1, r4
 8003f98:	4803      	ldr	r0, [pc, #12]	@ (8003fa8 <USBD_FS_ConfigStrDescriptor+0x18>)
 8003f9a:	f7ff fecd 	bl	8003d38 <USBD_GetString>
 8003f9e:	0020      	movs	r0, r4
 8003fa0:	bd10      	pop	{r4, pc}
 8003fa2:	46c0      	nop			@ (mov r8, r8)
 8003fa4:	20000a68 	.word	0x20000a68
 8003fa8:	0800445c 	.word	0x0800445c

08003fac <USBD_FS_InterfaceStrDescriptor>:
 8003fac:	b510      	push	{r4, lr}
 8003fae:	4c04      	ldr	r4, [pc, #16]	@ (8003fc0 <USBD_FS_InterfaceStrDescriptor+0x14>)
 8003fb0:	000a      	movs	r2, r1
 8003fb2:	0021      	movs	r1, r4
 8003fb4:	4803      	ldr	r0, [pc, #12]	@ (8003fc4 <USBD_FS_InterfaceStrDescriptor+0x18>)
 8003fb6:	f7ff febf 	bl	8003d38 <USBD_GetString>
 8003fba:	0020      	movs	r0, r4
 8003fbc:	bd10      	pop	{r4, pc}
 8003fbe:	46c0      	nop			@ (mov r8, r8)
 8003fc0:	20000a68 	.word	0x20000a68
 8003fc4:	08004467 	.word	0x08004467

08003fc8 <USBD_Get_USB_Status>:
 8003fc8:	2800      	cmp	r0, #0
 8003fca:	d003      	beq.n	8003fd4 <USBD_Get_USB_Status+0xc>
 8003fcc:	3802      	subs	r0, #2
 8003fce:	1e43      	subs	r3, r0, #1
 8003fd0:	4198      	sbcs	r0, r3
 8003fd2:	3001      	adds	r0, #1
 8003fd4:	4770      	bx	lr
	...

08003fd8 <HAL_PCD_MspInit>:
 8003fd8:	b507      	push	{r0, r1, r2, lr}
 8003fda:	4b0b      	ldr	r3, [pc, #44]	@ (8004008 <HAL_PCD_MspInit+0x30>)
 8003fdc:	6802      	ldr	r2, [r0, #0]
 8003fde:	429a      	cmp	r2, r3
 8003fe0:	d111      	bne.n	8004006 <HAL_PCD_MspInit+0x2e>
 8003fe2:	2180      	movs	r1, #128	@ 0x80
 8003fe4:	4b09      	ldr	r3, [pc, #36]	@ (800400c <HAL_PCD_MspInit+0x34>)
 8003fe6:	0409      	lsls	r1, r1, #16
 8003fe8:	69da      	ldr	r2, [r3, #28]
 8003fea:	201f      	movs	r0, #31
 8003fec:	430a      	orrs	r2, r1
 8003fee:	61da      	str	r2, [r3, #28]
 8003ff0:	2200      	movs	r2, #0
 8003ff2:	69db      	ldr	r3, [r3, #28]
 8003ff4:	400b      	ands	r3, r1
 8003ff6:	9301      	str	r3, [sp, #4]
 8003ff8:	0011      	movs	r1, r2
 8003ffa:	9b01      	ldr	r3, [sp, #4]
 8003ffc:	f7fc feb2 	bl	8000d64 <HAL_NVIC_SetPriority>
 8004000:	201f      	movs	r0, #31
 8004002:	f7fc fed9 	bl	8000db8 <HAL_NVIC_EnableIRQ>
 8004006:	bd07      	pop	{r0, r1, r2, pc}
 8004008:	40005c00 	.word	0x40005c00
 800400c:	40021000 	.word	0x40021000

08004010 <HAL_PCD_SetupStageCallback>:
 8004010:	23a6      	movs	r3, #166	@ 0xa6
 8004012:	b510      	push	{r4, lr}
 8004014:	009b      	lsls	r3, r3, #2
 8004016:	18c1      	adds	r1, r0, r3
 8004018:	3340      	adds	r3, #64	@ 0x40
 800401a:	58c0      	ldr	r0, [r0, r3]
 800401c:	f7ff fb46 	bl	80036ac <USBD_LL_SetupStage>
 8004020:	bd10      	pop	{r4, pc}

08004022 <HAL_PCD_DataOutStageCallback>:
 8004022:	2328      	movs	r3, #40	@ 0x28
 8004024:	434b      	muls	r3, r1
 8004026:	18c3      	adds	r3, r0, r3
 8004028:	33fc      	adds	r3, #252	@ 0xfc
 800402a:	6e9a      	ldr	r2, [r3, #104]	@ 0x68
 800402c:	23b6      	movs	r3, #182	@ 0xb6
 800402e:	b510      	push	{r4, lr}
 8004030:	009b      	lsls	r3, r3, #2
 8004032:	58c0      	ldr	r0, [r0, r3]
 8004034:	f7ff fb6c 	bl	8003710 <USBD_LL_DataOutStage>
 8004038:	bd10      	pop	{r4, pc}

0800403a <HAL_PCD_DataInStageCallback>:
 800403a:	2328      	movs	r3, #40	@ 0x28
 800403c:	434b      	muls	r3, r1
 800403e:	18c3      	adds	r3, r0, r3
 8004040:	6a5a      	ldr	r2, [r3, #36]	@ 0x24
 8004042:	23b6      	movs	r3, #182	@ 0xb6
 8004044:	b510      	push	{r4, lr}
 8004046:	009b      	lsls	r3, r3, #2
 8004048:	58c0      	ldr	r0, [r0, r3]
 800404a:	f7ff fba4 	bl	8003796 <USBD_LL_DataInStage>
 800404e:	bd10      	pop	{r4, pc}

08004050 <HAL_PCD_SOFCallback>:
 8004050:	23b6      	movs	r3, #182	@ 0xb6
 8004052:	b510      	push	{r4, lr}
 8004054:	009b      	lsls	r3, r3, #2
 8004056:	58c0      	ldr	r0, [r0, r3]
 8004058:	f7ff fc46 	bl	80038e8 <USBD_LL_SOF>
 800405c:	bd10      	pop	{r4, pc}

0800405e <HAL_PCD_ResetCallback>:
 800405e:	b570      	push	{r4, r5, r6, lr}
 8004060:	7943      	ldrb	r3, [r0, #5]
 8004062:	0004      	movs	r4, r0
 8004064:	2b02      	cmp	r3, #2
 8004066:	d001      	beq.n	800406c <HAL_PCD_ResetCallback+0xe>
 8004068:	f7fc fa58 	bl	800051c <Error_Handler>
 800406c:	25b6      	movs	r5, #182	@ 0xb6
 800406e:	00ad      	lsls	r5, r5, #2
 8004070:	2101      	movs	r1, #1
 8004072:	5960      	ldr	r0, [r4, r5]
 8004074:	f7ff fc1d 	bl	80038b2 <USBD_LL_SetSpeed>
 8004078:	5960      	ldr	r0, [r4, r5]
 800407a:	f7ff fbf0 	bl	800385e <USBD_LL_Reset>
 800407e:	bd70      	pop	{r4, r5, r6, pc}

08004080 <HAL_PCD_SuspendCallback>:
 8004080:	23b6      	movs	r3, #182	@ 0xb6
 8004082:	b510      	push	{r4, lr}
 8004084:	0004      	movs	r4, r0
 8004086:	009b      	lsls	r3, r3, #2
 8004088:	58c0      	ldr	r0, [r0, r3]
 800408a:	f7ff fc15 	bl	80038b8 <USBD_LL_Suspend>
 800408e:	7a63      	ldrb	r3, [r4, #9]
 8004090:	2b00      	cmp	r3, #0
 8004092:	d004      	beq.n	800409e <HAL_PCD_SuspendCallback+0x1e>
 8004094:	2306      	movs	r3, #6
 8004096:	4a02      	ldr	r2, [pc, #8]	@ (80040a0 <HAL_PCD_SuspendCallback+0x20>)
 8004098:	6911      	ldr	r1, [r2, #16]
 800409a:	430b      	orrs	r3, r1
 800409c:	6113      	str	r3, [r2, #16]
 800409e:	bd10      	pop	{r4, pc}
 80040a0:	e000ed00 	.word	0xe000ed00

080040a4 <HAL_PCD_ResumeCallback>:
 80040a4:	b510      	push	{r4, lr}
 80040a6:	7a43      	ldrb	r3, [r0, #9]
 80040a8:	0004      	movs	r4, r0
 80040aa:	2b00      	cmp	r3, #0
 80040ac:	d006      	beq.n	80040bc <HAL_PCD_ResumeCallback+0x18>
 80040ae:	2106      	movs	r1, #6
 80040b0:	4a05      	ldr	r2, [pc, #20]	@ (80040c8 <HAL_PCD_ResumeCallback+0x24>)
 80040b2:	6913      	ldr	r3, [r2, #16]
 80040b4:	438b      	bics	r3, r1
 80040b6:	6113      	str	r3, [r2, #16]
 80040b8:	f7fc f8ce 	bl	8000258 <SystemClock_Config>
 80040bc:	23b6      	movs	r3, #182	@ 0xb6
 80040be:	009b      	lsls	r3, r3, #2
 80040c0:	58e0      	ldr	r0, [r4, r3]
 80040c2:	f7ff fc05 	bl	80038d0 <USBD_LL_Resume>
 80040c6:	bd10      	pop	{r4, pc}
 80040c8:	e000ed00 	.word	0xe000ed00

080040cc <USBD_LL_Init>:
 80040cc:	23b6      	movs	r3, #182	@ 0xb6
 80040ce:	b570      	push	{r4, r5, r6, lr}
 80040d0:	0004      	movs	r4, r0
 80040d2:	481c      	ldr	r0, [pc, #112]	@ (8004144 <USBD_LL_Init+0x78>)
 80040d4:	009b      	lsls	r3, r3, #2
 80040d6:	50c4      	str	r4, [r0, r3]
 80040d8:	4b1b      	ldr	r3, [pc, #108]	@ (8004148 <USBD_LL_Init+0x7c>)
 80040da:	25b0      	movs	r5, #176	@ 0xb0
 80040dc:	6003      	str	r3, [r0, #0]
 80040de:	2382      	movs	r3, #130	@ 0x82
 80040e0:	009b      	lsls	r3, r3, #2
 80040e2:	8083      	strh	r3, [r0, #4]
 80040e4:	2302      	movs	r3, #2
 80040e6:	71c3      	strb	r3, [r0, #7]
 80040e8:	2300      	movs	r3, #0
 80040ea:	00ad      	lsls	r5, r5, #2
 80040ec:	5160      	str	r0, [r4, r5]
 80040ee:	7243      	strb	r3, [r0, #9]
 80040f0:	8143      	strh	r3, [r0, #10]
 80040f2:	f7fc fff7 	bl	80010e4 <HAL_PCD_Init>
 80040f6:	2800      	cmp	r0, #0
 80040f8:	d001      	beq.n	80040fe <USBD_LL_Init+0x32>
 80040fa:	f7fc fa0f 	bl	800051c <Error_Handler>
 80040fe:	2200      	movs	r2, #0
 8004100:	5960      	ldr	r0, [r4, r5]
 8004102:	0011      	movs	r1, r2
 8004104:	2318      	movs	r3, #24
 8004106:	f7fd fe2c 	bl	8001d62 <HAL_PCDEx_PMAConfig>
 800410a:	5960      	ldr	r0, [r4, r5]
 800410c:	2358      	movs	r3, #88	@ 0x58
 800410e:	2200      	movs	r2, #0
 8004110:	2180      	movs	r1, #128	@ 0x80
 8004112:	f7fd fe26 	bl	8001d62 <HAL_PCDEx_PMAConfig>
 8004116:	5960      	ldr	r0, [r4, r5]
 8004118:	23c0      	movs	r3, #192	@ 0xc0
 800411a:	2200      	movs	r2, #0
 800411c:	2181      	movs	r1, #129	@ 0x81
 800411e:	f7fd fe20 	bl	8001d62 <HAL_PCDEx_PMAConfig>
 8004122:	2388      	movs	r3, #136	@ 0x88
 8004124:	5960      	ldr	r0, [r4, r5]
 8004126:	2200      	movs	r2, #0
 8004128:	2101      	movs	r1, #1
 800412a:	005b      	lsls	r3, r3, #1
 800412c:	f7fd fe19 	bl	8001d62 <HAL_PCDEx_PMAConfig>
 8004130:	2380      	movs	r3, #128	@ 0x80
 8004132:	5960      	ldr	r0, [r4, r5]
 8004134:	2200      	movs	r2, #0
 8004136:	2182      	movs	r1, #130	@ 0x82
 8004138:	005b      	lsls	r3, r3, #1
 800413a:	f7fd fe12 	bl	8001d62 <HAL_PCDEx_PMAConfig>
 800413e:	2000      	movs	r0, #0
 8004140:	bd70      	pop	{r4, r5, r6, pc}
 8004142:	46c0      	nop			@ (mov r8, r8)
 8004144:	20000cc8 	.word	0x20000cc8
 8004148:	40005c00 	.word	0x40005c00

0800414c <USBD_LL_Start>:
 800414c:	23b0      	movs	r3, #176	@ 0xb0
 800414e:	b510      	push	{r4, lr}
 8004150:	009b      	lsls	r3, r3, #2
 8004152:	58c0      	ldr	r0, [r0, r3]
 8004154:	f7fd f812 	bl	800117c <HAL_PCD_Start>
 8004158:	f7ff ff36 	bl	8003fc8 <USBD_Get_USB_Status>
 800415c:	bd10      	pop	{r4, pc}

0800415e <USBD_LL_OpenEP>:
 800415e:	b510      	push	{r4, lr}
 8004160:	0014      	movs	r4, r2
 8004162:	001a      	movs	r2, r3
 8004164:	0023      	movs	r3, r4
 8004166:	24b0      	movs	r4, #176	@ 0xb0
 8004168:	00a4      	lsls	r4, r4, #2
 800416a:	5900      	ldr	r0, [r0, r4]
 800416c:	f7fd fd10 	bl	8001b90 <HAL_PCD_EP_Open>
 8004170:	f7ff ff2a 	bl	8003fc8 <USBD_Get_USB_Status>
 8004174:	bd10      	pop	{r4, pc}

08004176 <USBD_LL_CloseEP>:
 8004176:	23b0      	movs	r3, #176	@ 0xb0
 8004178:	b510      	push	{r4, lr}
 800417a:	009b      	lsls	r3, r3, #2
 800417c:	58c0      	ldr	r0, [r0, r3]
 800417e:	f7fd fd33 	bl	8001be8 <HAL_PCD_EP_Close>
 8004182:	f7ff ff21 	bl	8003fc8 <USBD_Get_USB_Status>
 8004186:	bd10      	pop	{r4, pc}

08004188 <USBD_LL_StallEP>:
 8004188:	23b0      	movs	r3, #176	@ 0xb0
 800418a:	b510      	push	{r4, lr}
 800418c:	009b      	lsls	r3, r3, #2
 800418e:	58c0      	ldr	r0, [r0, r3]
 8004190:	f7fd fd8b 	bl	8001caa <HAL_PCD_EP_SetStall>
 8004194:	f7ff ff18 	bl	8003fc8 <USBD_Get_USB_Status>
 8004198:	bd10      	pop	{r4, pc}

0800419a <USBD_LL_ClearStallEP>:
 800419a:	23b0      	movs	r3, #176	@ 0xb0
 800419c:	b510      	push	{r4, lr}
 800419e:	009b      	lsls	r3, r3, #2
 80041a0:	58c0      	ldr	r0, [r0, r3]
 80041a2:	f7fd fdb0 	bl	8001d06 <HAL_PCD_EP_ClrStall>
 80041a6:	f7ff ff0f 	bl	8003fc8 <USBD_Get_USB_Status>
 80041aa:	bd10      	pop	{r4, pc}

080041ac <USBD_LL_IsStallEP>:
 80041ac:	23b0      	movs	r3, #176	@ 0xb0
 80041ae:	009b      	lsls	r3, r3, #2
 80041b0:	58c3      	ldr	r3, [r0, r3]
 80041b2:	b248      	sxtb	r0, r1
 80041b4:	2228      	movs	r2, #40	@ 0x28
 80041b6:	2800      	cmp	r0, #0
 80041b8:	da05      	bge.n	80041c6 <USBD_LL_IsStallEP+0x1a>
 80041ba:	207f      	movs	r0, #127	@ 0x7f
 80041bc:	4001      	ands	r1, r0
 80041be:	434a      	muls	r2, r1
 80041c0:	189b      	adds	r3, r3, r2
 80041c2:	7c98      	ldrb	r0, [r3, #18]
 80041c4:	4770      	bx	lr
 80041c6:	434a      	muls	r2, r1
 80041c8:	189b      	adds	r3, r3, r2
 80041ca:	3353      	adds	r3, #83	@ 0x53
 80041cc:	33ff      	adds	r3, #255	@ 0xff
 80041ce:	7818      	ldrb	r0, [r3, #0]
 80041d0:	e7f8      	b.n	80041c4 <USBD_LL_IsStallEP+0x18>

080041d2 <USBD_LL_SetUSBAddress>:
 80041d2:	23b0      	movs	r3, #176	@ 0xb0
 80041d4:	b510      	push	{r4, lr}
 80041d6:	009b      	lsls	r3, r3, #2
 80041d8:	58c0      	ldr	r0, [r0, r3]
 80041da:	f7fc ffe2 	bl	80011a2 <HAL_PCD_SetAddress>
 80041de:	f7ff fef3 	bl	8003fc8 <USBD_Get_USB_Status>
 80041e2:	bd10      	pop	{r4, pc}

080041e4 <USBD_LL_Transmit>:
 80041e4:	b510      	push	{r4, lr}
 80041e6:	24b0      	movs	r4, #176	@ 0xb0
 80041e8:	00a4      	lsls	r4, r4, #2
 80041ea:	5900      	ldr	r0, [r0, r4]
 80041ec:	f7fd fd45 	bl	8001c7a <HAL_PCD_EP_Transmit>
 80041f0:	f7ff feea 	bl	8003fc8 <USBD_Get_USB_Status>
 80041f4:	bd10      	pop	{r4, pc}

080041f6 <USBD_LL_PrepareReceive>:
 80041f6:	b510      	push	{r4, lr}
 80041f8:	24b0      	movs	r4, #176	@ 0xb0
 80041fa:	00a4      	lsls	r4, r4, #2
 80041fc:	5900      	ldr	r0, [r0, r4]
 80041fe:	f7fd fd19 	bl	8001c34 <HAL_PCD_EP_Receive>
 8004202:	f7ff fee1 	bl	8003fc8 <USBD_Get_USB_Status>
 8004206:	bd10      	pop	{r4, pc}

08004208 <USBD_LL_GetRxDataSize>:
 8004208:	23b0      	movs	r3, #176	@ 0xb0
 800420a:	b510      	push	{r4, lr}
 800420c:	009b      	lsls	r3, r3, #2
 800420e:	58c0      	ldr	r0, [r0, r3]
 8004210:	f7fd fd2b 	bl	8001c6a <HAL_PCD_EP_GetRxCount>
 8004214:	bd10      	pop	{r4, pc}
	...

08004218 <USBD_static_malloc>:
 8004218:	4800      	ldr	r0, [pc, #0]	@ (800421c <USBD_static_malloc+0x4>)
 800421a:	4770      	bx	lr
 800421c:	20000aa8 	.word	0x20000aa8

08004220 <USBD_static_free>:
 8004220:	4770      	bx	lr

08004222 <memset>:
 8004222:	0003      	movs	r3, r0
 8004224:	1882      	adds	r2, r0, r2
 8004226:	4293      	cmp	r3, r2
 8004228:	d100      	bne.n	800422c <memset+0xa>
 800422a:	4770      	bx	lr
 800422c:	7019      	strb	r1, [r3, #0]
 800422e:	3301      	adds	r3, #1
 8004230:	e7f9      	b.n	8004226 <memset+0x4>
	...

08004234 <__libc_init_array>:
 8004234:	b570      	push	{r4, r5, r6, lr}
 8004236:	2600      	movs	r6, #0
 8004238:	4c0c      	ldr	r4, [pc, #48]	@ (800426c <__libc_init_array+0x38>)
 800423a:	4d0d      	ldr	r5, [pc, #52]	@ (8004270 <__libc_init_array+0x3c>)
 800423c:	1b64      	subs	r4, r4, r5
 800423e:	10a4      	asrs	r4, r4, #2
 8004240:	42a6      	cmp	r6, r4
 8004242:	d109      	bne.n	8004258 <__libc_init_array+0x24>
 8004244:	2600      	movs	r6, #0
 8004246:	f000 f819 	bl	800427c <_init>
 800424a:	4c0a      	ldr	r4, [pc, #40]	@ (8004274 <__libc_init_array+0x40>)
 800424c:	4d0a      	ldr	r5, [pc, #40]	@ (8004278 <__libc_init_array+0x44>)
 800424e:	1b64      	subs	r4, r4, r5
 8004250:	10a4      	asrs	r4, r4, #2
 8004252:	42a6      	cmp	r6, r4
 8004254:	d105      	bne.n	8004262 <__libc_init_array+0x2e>
 8004256:	bd70      	pop	{r4, r5, r6, pc}
 8004258:	00b3      	lsls	r3, r6, #2
 800425a:	58eb      	ldr	r3, [r5, r3]
 800425c:	4798      	blx	r3
 800425e:	3601      	adds	r6, #1
 8004260:	e7ee      	b.n	8004240 <__libc_init_array+0xc>
 8004262:	00b3      	lsls	r3, r6, #2
 8004264:	58eb      	ldr	r3, [r5, r3]
 8004266:	4798      	blx	r3
 8004268:	3601      	adds	r6, #1
 800426a:	e7f2      	b.n	8004252 <__libc_init_array+0x1e>
 800426c:	08004478 	.word	0x08004478
 8004270:	08004478 	.word	0x08004478
 8004274:	0800447c 	.word	0x0800447c
 8004278:	08004478 	.word	0x08004478

0800427c <_init>:
 800427c:	b5f8      	push	{r3, r4, r5, r6, r7, lr}
 800427e:	46c0      	nop			@ (mov r8, r8)
 8004280:	bcf8      	pop	{r3, r4, r5, r6, r7}
 8004282:	bc08      	pop	{r3}
 8004284:	469e      	mov	lr, r3
 8004286:	4770      	bx	lr

08004288 <_fini>:
 8004288:	b5f8      	push	{r3, r4, r5, r6, r7, lr}
 800428a:	46c0      	nop			@ (mov r8, r8)
 800428c:	bcf8      	pop	{r3, r4, r5, r6, r7}
 800428e:	bc08      	pop	{r3}
 8004290:	469e      	mov	lr, r3
 8004292:	4770      	bx	lr
